

Microchip MPLAB XC8 Assembler V2.45 build 20230818022343 
                                                                                               Wed Mar 20 10:59:22 2024

Microchip MPLAB XC8 C Compiler v2.45 (Free license) build 20230818022343 Og1 
     1                           	processor	16F877A
     2                           	pagewidth 120
     3                           	opt	flic
     4                           	psect	idataBANK0,global,class=CODE,delta=2,noexec
     5                           	psect	idataBANK1,global,class=CODE,delta=2,noexec
     6                           	psect	strings,global,class=STRING,delta=2,noexec
     7                           	psect	stringtext,global,reloc=256,class=STRCODE,delta=2,noexec
     8                           	psect	cinit,global,class=CODE,merge=1,delta=2
     9                           	psect	bssCOMMON,global,class=COMMON,space=1,delta=1,noexec
    10                           	psect	bssBANK0,global,class=BANK0,space=1,delta=1,noexec
    11                           	psect	dataBANK0,global,class=BANK0,space=1,delta=1,noexec
    12                           	psect	bssBANK1,global,class=BANK1,space=1,delta=1,noexec
    13                           	psect	dataBANK1,global,class=BANK1,space=1,delta=1,noexec
    14                           	psect	inittext,global,class=CODE,delta=2
    15                           	psect	clrtext,global,class=CODE,delta=2
    16                           	psect	cstackBANK1,global,class=BANK1,space=1,delta=1,noexec
    17                           	psect	cstackCOMMON,global,class=COMMON,space=1,delta=1,noexec
    18                           	psect	cstackBANK0,global,class=BANK0,space=1,delta=1,noexec
    19                           	psect	maintext,global,class=CODE,split=1,delta=2
    20                           	psect	text1,local,class=CODE,merge=1,delta=2
    21                           	psect	text2,local,class=CODE,merge=1,delta=2,group=2
    22                           	psect	text3,local,class=CODE,merge=1,delta=2
    23                           	psect	text4,local,class=CODE,merge=1,delta=2
    24                           	psect	text5,local,class=CODE,merge=1,delta=2
    25                           	psect	text6,local,class=CODE,merge=1,delta=2
    26                           	psect	text7,local,class=CODE,merge=1,delta=2,group=2
    27                           	psect	text8,local,class=CODE,merge=1,delta=2
    28                           	psect	text9,local,class=CODE,merge=1,delta=2
    29                           	psect	text10,local,class=CODE,merge=1,delta=2
    30                           	psect	text11,local,class=CODE,merge=1,delta=2
    31                           	psect	text12,local,class=CODE,merge=1,delta=2
    32                           	psect	text13,local,class=CODE,merge=1,delta=2
    33                           	psect	text14,local,class=CODE,merge=1,delta=2
    34                           	psect	text15,local,class=CODE,merge=1,delta=2,group=1
    35                           	psect	text16,local,class=CODE,merge=1,delta=2
    36                           	psect	text17,local,class=CODE,merge=1,delta=2
    37                           	psect	text18,local,class=CODE,merge=1,delta=2
    38                           	psect	text19,local,class=CODE,merge=1,delta=2
    39                           	psect	text20,local,class=CODE,merge=1,delta=2
    40                           	psect	text21,local,class=CODE,merge=1,delta=2
    41                           	psect	text22,local,class=CODE,merge=1,delta=2
    42                           	psect	text23,local,class=CODE,merge=1,delta=2
    43                           	psect	text24,local,class=CODE,merge=1,delta=2
    44                           	psect	text25,local,class=CODE,merge=1,delta=2,group=1
    45                           	psect	text26,local,class=CODE,merge=1,delta=2
    46                           	psect	text27,local,class=CODE,merge=1,delta=2
    47                           	psect	text28,local,class=CODE,merge=1,delta=2,group=1
    48                           	psect	text29,local,class=CODE,merge=1,delta=2
    49                           	psect	text30,local,class=CODE,merge=1,delta=2
    50                           	psect	text31,local,class=CODE,merge=1,delta=2
    51                           	psect	text32,local,class=CODE,merge=1,delta=2
    52                           	psect	text33,local,class=CODE,merge=1,delta=2
    53                           	psect	text34,local,class=CODE,merge=1,delta=2
    54                           	psect	text35,local,class=CODE,merge=1,delta=2
    55                           	psect	text36,local,class=CODE,merge=1,delta=2,group=1
    56                           	psect	text37,local,class=CODE,merge=1,delta=2,group=1
    57                           	psect	text38,local,class=CODE,merge=1,delta=2,group=1
    58                           	psect	text39,local,class=CODE,merge=1,delta=2,group=1
    59                           	psect	text40,local,class=CODE,merge=1,delta=2
    60                           	psect	text41,local,class=CODE,merge=1,delta=2,group=2
    61                           	psect	text42,local,class=CODE,merge=1,delta=2,group=2
    62                           	psect	text43,local,class=CODE,merge=1,delta=2
    63                           	psect	text44,local,class=CODE,merge=1,delta=2
    64                           	psect	text45,local,class=CODE,merge=1,delta=2
    65                           	psect	text46,local,class=CODE,merge=1,delta=2
    66                           	psect	text47,local,class=CODE,merge=1,delta=2
    67                           	psect	text48,local,class=CODE,merge=1,delta=2
    68                           	psect	text49,local,class=CODE,merge=1,delta=2
    69                           	psect	text50,local,class=CODE,merge=1,delta=2
    70                           	psect	text51,local,class=CODE,merge=1,delta=2
    71                           	psect	text52,local,class=CODE,merge=1,delta=2
    72                           	psect	intentry,global,class=CODE,delta=2
    73                           	psect	idloc,global,abs,ovrld,class=IDLOC,space=5,delta=2,noexec
    74                           	psect	config,global,abs,ovrld,class=CONFIG,space=4,delta=2,noexec
    75                           	dabs	1,0x7E,2
    76     0000                     
    77                           ; Generated 18/08/2023 GMT
    78                           ; 
    79                           ; Copyright © 2023, Microchip Technology Inc. and its subsidiaries ("Microchip")
    80                           ; All rights reserved.
    81                           ; 
    82                           ; This software is developed by Microchip Technology Inc. and its subsidiaries ("Microch
      +                          ip").
    83                           ; 
    84                           ; Redistribution and use in source and binary forms, with or without modification, are
    85                           ; permitted provided that the following conditions are met:
    86                           ; 
    87                           ;     1. Redistributions of source code must retain the above copyright notice, this lis
      +                          t of
    88                           ;        conditions and the following disclaimer.
    89                           ; 
    90                           ;     2. Redistributions in binary form must reproduce the above copyright notice, this 
      +                          list
    91                           ;        of conditions and the following disclaimer in the documentation and/or other
    92                           ;        materials provided with the distribution. Publication is not required when
    93                           ;        this file is used in an embedded application.
    94                           ; 
    95                           ;     3. Microchip's name may not be used to endorse or promote products derived from th
      +                          is
    96                           ;        software without specific prior written permission.
    97                           ; 
    98                           ; THIS SOFTWARE IS PROVIDED BY MICROCHIP "AS IS" AND ANY EXPRESS OR IMPLIED WARRANTIES,
    99                           ; INCLUDING, BUT NOT LIMITED TO, THE IMPLIED WARRANTIES OF MERCHANTABILITY AND FITNESS F
      +                          OR
   100                           ; PURPOSE ARE DISCLAIMED.  IN NO EVENT SHALL MICROCHIP BE LIABLE FOR ANY DIRECT, INDIREC
      +                          T,
   101                           ; INCIDENTAL, SPECIAL, EXEMPLARY, OR CONSEQUENTIAL DAMAGES (INCLUDING BUT NOT LIMITED TO
   102                           ; PROCUREMENT OF SUBSTITUTE GOODS OR SERVICES; LOSS OF USE, DATA OR PROFITS; OR BUSINESS
   103                           ; INTERRUPTION) HOWSOEVER CAUSED AND ON ANY THEORY OF LIABILITY, WHETHER IN CONTRACT, ST
      +                          RICT
   104                           ; LIABILITY, OR TORT (INCLUDING NEGLIGENCE OR OTHERWISE) ARISING IN ANY WAY OUT OF THE U
      +                          SE OF
   105                           ; THIS SOFTWARE, EVEN IF ADVISED OF THE POSSIBILITY OF SUCH DAMAGE.
   106                           ; 
   107                           ; 
   108                           ; Code-generator required, PIC16F877A Definitions
   109                           ; 
   110                           ; SFR Addresses
   111     0000                     	;# 
   112     0001                     	;# 
   113     0002                     	;# 
   114     0003                     	;# 
   115     0004                     	;# 
   116     0005                     	;# 
   117     0006                     	;# 
   118     0007                     	;# 
   119     0008                     	;# 
   120     0009                     	;# 
   121     000A                     	;# 
   122     000B                     	;# 
   123     000C                     	;# 
   124     000D                     	;# 
   125     000E                     	;# 
   126     000E                     	;# 
   127     000F                     	;# 
   128     0010                     	;# 
   129     0011                     	;# 
   130     0012                     	;# 
   131     0013                     	;# 
   132     0014                     	;# 
   133     0015                     	;# 
   134     0015                     	;# 
   135     0016                     	;# 
   136     0017                     	;# 
   137     0018                     	;# 
   138     0019                     	;# 
   139     001A                     	;# 
   140     001B                     	;# 
   141     001B                     	;# 
   142     001C                     	;# 
   143     001D                     	;# 
   144     001E                     	;# 
   145     001F                     	;# 
   146     0081                     	;# 
   147     0085                     	;# 
   148     0086                     	;# 
   149     0087                     	;# 
   150     0088                     	;# 
   151     0089                     	;# 
   152     008C                     	;# 
   153     008D                     	;# 
   154     008E                     	;# 
   155     0091                     	;# 
   156     0092                     	;# 
   157     0093                     	;# 
   158     0094                     	;# 
   159     0098                     	;# 
   160     0099                     	;# 
   161     009C                     	;# 
   162     009D                     	;# 
   163     009E                     	;# 
   164     009F                     	;# 
   165     010C                     	;# 
   166     010D                     	;# 
   167     010E                     	;# 
   168     010F                     	;# 
   169     018C                     	;# 
   170     018D                     	;# 
   171     0000                     	;# 
   172     0001                     	;# 
   173     0002                     	;# 
   174     0003                     	;# 
   175     0004                     	;# 
   176     0005                     	;# 
   177     0006                     	;# 
   178     0007                     	;# 
   179     0008                     	;# 
   180     0009                     	;# 
   181     000A                     	;# 
   182     000B                     	;# 
   183     000C                     	;# 
   184     000D                     	;# 
   185     000E                     	;# 
   186     000E                     	;# 
   187     000F                     	;# 
   188     0010                     	;# 
   189     0011                     	;# 
   190     0012                     	;# 
   191     0013                     	;# 
   192     0014                     	;# 
   193     0015                     	;# 
   194     0015                     	;# 
   195     0016                     	;# 
   196     0017                     	;# 
   197     0018                     	;# 
   198     0019                     	;# 
   199     001A                     	;# 
   200     001B                     	;# 
   201     001B                     	;# 
   202     001C                     	;# 
   203     001D                     	;# 
   204     001E                     	;# 
   205     001F                     	;# 
   206     0081                     	;# 
   207     0085                     	;# 
   208     0086                     	;# 
   209     0087                     	;# 
   210     0088                     	;# 
   211     0089                     	;# 
   212     008C                     	;# 
   213     008D                     	;# 
   214     008E                     	;# 
   215     0091                     	;# 
   216     0092                     	;# 
   217     0093                     	;# 
   218     0094                     	;# 
   219     0098                     	;# 
   220     0099                     	;# 
   221     009C                     	;# 
   222     009D                     	;# 
   223     009E                     	;# 
   224     009F                     	;# 
   225     010C                     	;# 
   226     010D                     	;# 
   227     010E                     	;# 
   228     010F                     	;# 
   229     018C                     	;# 
   230     018D                     	;# 
   231     0000                     	;# 
   232     0001                     	;# 
   233     0002                     	;# 
   234     0003                     	;# 
   235     0004                     	;# 
   236     0005                     	;# 
   237     0006                     	;# 
   238     0007                     	;# 
   239     0008                     	;# 
   240     0009                     	;# 
   241     000A                     	;# 
   242     000B                     	;# 
   243     000C                     	;# 
   244     000D                     	;# 
   245     000E                     	;# 
   246     000E                     	;# 
   247     000F                     	;# 
   248     0010                     	;# 
   249     0011                     	;# 
   250     0012                     	;# 
   251     0013                     	;# 
   252     0014                     	;# 
   253     0015                     	;# 
   254     0015                     	;# 
   255     0016                     	;# 
   256     0017                     	;# 
   257     0018                     	;# 
   258     0019                     	;# 
   259     001A                     	;# 
   260     001B                     	;# 
   261     001B                     	;# 
   262     001C                     	;# 
   263     001D                     	;# 
   264     001E                     	;# 
   265     001F                     	;# 
   266     0081                     	;# 
   267     0085                     	;# 
   268     0086                     	;# 
   269     0087                     	;# 
   270     0088                     	;# 
   271     0089                     	;# 
   272     008C                     	;# 
   273     008D                     	;# 
   274     008E                     	;# 
   275     0091                     	;# 
   276     0092                     	;# 
   277     0093                     	;# 
   278     0094                     	;# 
   279     0098                     	;# 
   280     0099                     	;# 
   281     009C                     	;# 
   282     009D                     	;# 
   283     009E                     	;# 
   284     009F                     	;# 
   285     010C                     	;# 
   286     010D                     	;# 
   287     010E                     	;# 
   288     010F                     	;# 
   289     018C                     	;# 
   290     018D                     	;# 
   291     0000                     	;# 
   292     0001                     	;# 
   293     0002                     	;# 
   294     0003                     	;# 
   295     0004                     	;# 
   296     0005                     	;# 
   297     0006                     	;# 
   298     0007                     	;# 
   299     0008                     	;# 
   300     0009                     	;# 
   301     000A                     	;# 
   302     000B                     	;# 
   303     000C                     	;# 
   304     000D                     	;# 
   305     000E                     	;# 
   306     000E                     	;# 
   307     000F                     	;# 
   308     0010                     	;# 
   309     0011                     	;# 
   310     0012                     	;# 
   311     0013                     	;# 
   312     0014                     	;# 
   313     0015                     	;# 
   314     0015                     	;# 
   315     0016                     	;# 
   316     0017                     	;# 
   317     0018                     	;# 
   318     0019                     	;# 
   319     001A                     	;# 
   320     001B                     	;# 
   321     001B                     	;# 
   322     001C                     	;# 
   323     001D                     	;# 
   324     001E                     	;# 
   325     001F                     	;# 
   326     0081                     	;# 
   327     0085                     	;# 
   328     0086                     	;# 
   329     0087                     	;# 
   330     0088                     	;# 
   331     0089                     	;# 
   332     008C                     	;# 
   333     008D                     	;# 
   334     008E                     	;# 
   335     0091                     	;# 
   336     0092                     	;# 
   337     0093                     	;# 
   338     0094                     	;# 
   339     0098                     	;# 
   340     0099                     	;# 
   341     009C                     	;# 
   342     009D                     	;# 
   343     009E                     	;# 
   344     009F                     	;# 
   345     010C                     	;# 
   346     010D                     	;# 
   347     010E                     	;# 
   348     010F                     	;# 
   349     018C                     	;# 
   350     018D                     	;# 
   351     0000                     	;# 
   352     0001                     	;# 
   353     0002                     	;# 
   354     0003                     	;# 
   355     0004                     	;# 
   356     0005                     	;# 
   357     0006                     	;# 
   358     0007                     	;# 
   359     0008                     	;# 
   360     0009                     	;# 
   361     000A                     	;# 
   362     000B                     	;# 
   363     000C                     	;# 
   364     000D                     	;# 
   365     000E                     	;# 
   366     000E                     	;# 
   367     000F                     	;# 
   368     0010                     	;# 
   369     0011                     	;# 
   370     0012                     	;# 
   371     0013                     	;# 
   372     0014                     	;# 
   373     0015                     	;# 
   374     0015                     	;# 
   375     0016                     	;# 
   376     0017                     	;# 
   377     0018                     	;# 
   378     0019                     	;# 
   379     001A                     	;# 
   380     001B                     	;# 
   381     001B                     	;# 
   382     001C                     	;# 
   383     001D                     	;# 
   384     001E                     	;# 
   385     001F                     	;# 
   386     0081                     	;# 
   387     0085                     	;# 
   388     0086                     	;# 
   389     0087                     	;# 
   390     0088                     	;# 
   391     0089                     	;# 
   392     008C                     	;# 
   393     008D                     	;# 
   394     008E                     	;# 
   395     0091                     	;# 
   396     0092                     	;# 
   397     0093                     	;# 
   398     0094                     	;# 
   399     0098                     	;# 
   400     0099                     	;# 
   401     009C                     	;# 
   402     009D                     	;# 
   403     009E                     	;# 
   404     009F                     	;# 
   405     010C                     	;# 
   406     010D                     	;# 
   407     010E                     	;# 
   408     010F                     	;# 
   409     018C                     	;# 
   410     018D                     	;# 
   411     0000                     	;# 
   412     0001                     	;# 
   413     0002                     	;# 
   414     0003                     	;# 
   415     0004                     	;# 
   416     0005                     	;# 
   417     0006                     	;# 
   418     0007                     	;# 
   419     0008                     	;# 
   420     0009                     	;# 
   421     000A                     	;# 
   422     000B                     	;# 
   423     000C                     	;# 
   424     000D                     	;# 
   425     000E                     	;# 
   426     000E                     	;# 
   427     000F                     	;# 
   428     0010                     	;# 
   429     0011                     	;# 
   430     0012                     	;# 
   431     0013                     	;# 
   432     0014                     	;# 
   433     0015                     	;# 
   434     0015                     	;# 
   435     0016                     	;# 
   436     0017                     	;# 
   437     0018                     	;# 
   438     0019                     	;# 
   439     001A                     	;# 
   440     001B                     	;# 
   441     001B                     	;# 
   442     001C                     	;# 
   443     001D                     	;# 
   444     001E                     	;# 
   445     001F                     	;# 
   446     0081                     	;# 
   447     0085                     	;# 
   448     0086                     	;# 
   449     0087                     	;# 
   450     0088                     	;# 
   451     0089                     	;# 
   452     008C                     	;# 
   453     008D                     	;# 
   454     008E                     	;# 
   455     0091                     	;# 
   456     0092                     	;# 
   457     0093                     	;# 
   458     0094                     	;# 
   459     0098                     	;# 
   460     0099                     	;# 
   461     009C                     	;# 
   462     009D                     	;# 
   463     009E                     	;# 
   464     009F                     	;# 
   465     010C                     	;# 
   466     010D                     	;# 
   467     010E                     	;# 
   468     010F                     	;# 
   469     018C                     	;# 
   470     018D                     	;# 
   471     0000                     	;# 
   472     0001                     	;# 
   473     0002                     	;# 
   474     0003                     	;# 
   475     0004                     	;# 
   476     0005                     	;# 
   477     0006                     	;# 
   478     0007                     	;# 
   479     0008                     	;# 
   480     0009                     	;# 
   481     000A                     	;# 
   482     000B                     	;# 
   483     000C                     	;# 
   484     000D                     	;# 
   485     000E                     	;# 
   486     000E                     	;# 
   487     000F                     	;# 
   488     0010                     	;# 
   489     0011                     	;# 
   490     0012                     	;# 
   491     0013                     	;# 
   492     0014                     	;# 
   493     0015                     	;# 
   494     0015                     	;# 
   495     0016                     	;# 
   496     0017                     	;# 
   497     0018                     	;# 
   498     0019                     	;# 
   499     001A                     	;# 
   500     001B                     	;# 
   501     001B                     	;# 
   502     001C                     	;# 
   503     001D                     	;# 
   504     001E                     	;# 
   505     001F                     	;# 
   506     0081                     	;# 
   507     0085                     	;# 
   508     0086                     	;# 
   509     0087                     	;# 
   510     0088                     	;# 
   511     0089                     	;# 
   512     008C                     	;# 
   513     008D                     	;# 
   514     008E                     	;# 
   515     0091                     	;# 
   516     0092                     	;# 
   517     0093                     	;# 
   518     0094                     	;# 
   519     0098                     	;# 
   520     0099                     	;# 
   521     009C                     	;# 
   522     009D                     	;# 
   523     009E                     	;# 
   524     009F                     	;# 
   525     010C                     	;# 
   526     010D                     	;# 
   527     010E                     	;# 
   528     010F                     	;# 
   529     018C                     	;# 
   530     018D                     	;# 
   531     0000                     	;# 
   532     0001                     	;# 
   533     0002                     	;# 
   534     0003                     	;# 
   535     0004                     	;# 
   536     0005                     	;# 
   537     0006                     	;# 
   538     0007                     	;# 
   539     0008                     	;# 
   540     0009                     	;# 
   541     000A                     	;# 
   542     000B                     	;# 
   543     000C                     	;# 
   544     000D                     	;# 
   545     000E                     	;# 
   546     000E                     	;# 
   547     000F                     	;# 
   548     0010                     	;# 
   549     0011                     	;# 
   550     0012                     	;# 
   551     0013                     	;# 
   552     0014                     	;# 
   553     0015                     	;# 
   554     0015                     	;# 
   555     0016                     	;# 
   556     0017                     	;# 
   557     0018                     	;# 
   558     0019                     	;# 
   559     001A                     	;# 
   560     001B                     	;# 
   561     001B                     	;# 
   562     001C                     	;# 
   563     001D                     	;# 
   564     001E                     	;# 
   565     001F                     	;# 
   566     0081                     	;# 
   567     0085                     	;# 
   568     0086                     	;# 
   569     0087                     	;# 
   570     0088                     	;# 
   571     0089                     	;# 
   572     008C                     	;# 
   573     008D                     	;# 
   574     008E                     	;# 
   575     0091                     	;# 
   576     0092                     	;# 
   577     0093                     	;# 
   578     0094                     	;# 
   579     0098                     	;# 
   580     0099                     	;# 
   581     009C                     	;# 
   582     009D                     	;# 
   583     009E                     	;# 
   584     009F                     	;# 
   585     010C                     	;# 
   586     010D                     	;# 
   587     010E                     	;# 
   588     010F                     	;# 
   589     018C                     	;# 
   590     018D                     	;# 
   591     0000                     	;# 
   592     0001                     	;# 
   593     0002                     	;# 
   594     0003                     	;# 
   595     0004                     	;# 
   596     0005                     	;# 
   597     0006                     	;# 
   598     0007                     	;# 
   599     0008                     	;# 
   600     0009                     	;# 
   601     000A                     	;# 
   602     000B                     	;# 
   603     000C                     	;# 
   604     000D                     	;# 
   605     000E                     	;# 
   606     000E                     	;# 
   607     000F                     	;# 
   608     0010                     	;# 
   609     0011                     	;# 
   610     0012                     	;# 
   611     0013                     	;# 
   612     0014                     	;# 
   613     0015                     	;# 
   614     0015                     	;# 
   615     0016                     	;# 
   616     0017                     	;# 
   617     0018                     	;# 
   618     0019                     	;# 
   619     001A                     	;# 
   620     001B                     	;# 
   621     001B                     	;# 
   622     001C                     	;# 
   623     001D                     	;# 
   624     001E                     	;# 
   625     001F                     	;# 
   626     0081                     	;# 
   627     0085                     	;# 
   628     0086                     	;# 
   629     0087                     	;# 
   630     0088                     	;# 
   631     0089                     	;# 
   632     008C                     	;# 
   633     008D                     	;# 
   634     008E                     	;# 
   635     0091                     	;# 
   636     0092                     	;# 
   637     0093                     	;# 
   638     0094                     	;# 
   639     0098                     	;# 
   640     0099                     	;# 
   641     009C                     	;# 
   642     009D                     	;# 
   643     009E                     	;# 
   644     009F                     	;# 
   645     010C                     	;# 
   646     010D                     	;# 
   647     010E                     	;# 
   648     010F                     	;# 
   649     018C                     	;# 
   650     018D                     	;# 
   651     0000                     	;# 
   652     0001                     	;# 
   653     0002                     	;# 
   654     0003                     	;# 
   655     0004                     	;# 
   656     0005                     	;# 
   657     0006                     	;# 
   658     0007                     	;# 
   659     0008                     	;# 
   660     0009                     	;# 
   661     000A                     	;# 
   662     000B                     	;# 
   663     000C                     	;# 
   664     000D                     	;# 
   665     000E                     	;# 
   666     000E                     	;# 
   667     000F                     	;# 
   668     0010                     	;# 
   669     0011                     	;# 
   670     0012                     	;# 
   671     0013                     	;# 
   672     0014                     	;# 
   673     0015                     	;# 
   674     0015                     	;# 
   675     0016                     	;# 
   676     0017                     	;# 
   677     0018                     	;# 
   678     0019                     	;# 
   679     001A                     	;# 
   680     001B                     	;# 
   681     001B                     	;# 
   682     001C                     	;# 
   683     001D                     	;# 
   684     001E                     	;# 
   685     001F                     	;# 
   686     0081                     	;# 
   687     0085                     	;# 
   688     0086                     	;# 
   689     0087                     	;# 
   690     0088                     	;# 
   691     0089                     	;# 
   692     008C                     	;# 
   693     008D                     	;# 
   694     008E                     	;# 
   695     0091                     	;# 
   696     0092                     	;# 
   697     0093                     	;# 
   698     0094                     	;# 
   699     0098                     	;# 
   700     0099                     	;# 
   701     009C                     	;# 
   702     009D                     	;# 
   703     009E                     	;# 
   704     009F                     	;# 
   705     010C                     	;# 
   706     010D                     	;# 
   707     010E                     	;# 
   708     010F                     	;# 
   709     018C                     	;# 
   710     018D                     	;# 
   711     0000                     	;# 
   712     0001                     	;# 
   713     0002                     	;# 
   714     0003                     	;# 
   715     0004                     	;# 
   716     0005                     	;# 
   717     0006                     	;# 
   718     0007                     	;# 
   719     0008                     	;# 
   720     0009                     	;# 
   721     000A                     	;# 
   722     000B                     	;# 
   723     000C                     	;# 
   724     000D                     	;# 
   725     000E                     	;# 
   726     000E                     	;# 
   727     000F                     	;# 
   728     0010                     	;# 
   729     0011                     	;# 
   730     0012                     	;# 
   731     0013                     	;# 
   732     0014                     	;# 
   733     0015                     	;# 
   734     0015                     	;# 
   735     0016                     	;# 
   736     0017                     	;# 
   737     0018                     	;# 
   738     0019                     	;# 
   739     001A                     	;# 
   740     001B                     	;# 
   741     001B                     	;# 
   742     001C                     	;# 
   743     001D                     	;# 
   744     001E                     	;# 
   745     001F                     	;# 
   746     0081                     	;# 
   747     0085                     	;# 
   748     0086                     	;# 
   749     0087                     	;# 
   750     0088                     	;# 
   751     0089                     	;# 
   752     008C                     	;# 
   753     008D                     	;# 
   754     008E                     	;# 
   755     0091                     	;# 
   756     0092                     	;# 
   757     0093                     	;# 
   758     0094                     	;# 
   759     0098                     	;# 
   760     0099                     	;# 
   761     009C                     	;# 
   762     009D                     	;# 
   763     009E                     	;# 
   764     009F                     	;# 
   765     010C                     	;# 
   766     010D                     	;# 
   767     010E                     	;# 
   768     010F                     	;# 
   769     018C                     	;# 
   770     018D                     	;# 
   771     0000                     	;# 
   772     0001                     	;# 
   773     0002                     	;# 
   774     0003                     	;# 
   775     0004                     	;# 
   776     0005                     	;# 
   777     0006                     	;# 
   778     0007                     	;# 
   779     0008                     	;# 
   780     0009                     	;# 
   781     000A                     	;# 
   782     000B                     	;# 
   783     000C                     	;# 
   784     000D                     	;# 
   785     000E                     	;# 
   786     000E                     	;# 
   787     000F                     	;# 
   788     0010                     	;# 
   789     0011                     	;# 
   790     0012                     	;# 
   791     0013                     	;# 
   792     0014                     	;# 
   793     0015                     	;# 
   794     0015                     	;# 
   795     0016                     	;# 
   796     0017                     	;# 
   797     0018                     	;# 
   798     0019                     	;# 
   799     001A                     	;# 
   800     001B                     	;# 
   801     001B                     	;# 
   802     001C                     	;# 
   803     001D                     	;# 
   804     001E                     	;# 
   805     001F                     	;# 
   806     0081                     	;# 
   807     0085                     	;# 
   808     0086                     	;# 
   809     0087                     	;# 
   810     0088                     	;# 
   811     0089                     	;# 
   812     008C                     	;# 
   813     008D                     	;# 
   814     008E                     	;# 
   815     0091                     	;# 
   816     0092                     	;# 
   817     0093                     	;# 
   818     0094                     	;# 
   819     0098                     	;# 
   820     0099                     	;# 
   821     009C                     	;# 
   822     009D                     	;# 
   823     009E                     	;# 
   824     009F                     	;# 
   825     010C                     	;# 
   826     010D                     	;# 
   827     010E                     	;# 
   828     010F                     	;# 
   829     018C                     	;# 
   830     018D                     	;# 
   831                           
   832                           	psect	idataBANK0
   833     1FAF                     __pidataBANK0:
   834                           
   835                           ;initializer for read_digital_keypad@longpressed
   836     1FAF  3401               	retlw	1
   837     1FB0  3400               	retlw	0
   838                           
   839                           ;initializer for login_menu@select_pos
   840     1FB1  3401               	retlw	1
   841     1FB2  3400               	retlw	0
   842                           
   843                           ;initializer for _access
   844     1FB3  34FF               	retlw	255
   845     1FB4  34FF               	retlw	255
   846                           
   847                           ;initializer for _pos
   848     1FB5  34FF               	retlw	255
   849     1FB6  34FF               	retlw	255
   850                           
   851                           	psect	idataBANK1
   852     1082                     __pidataBANK1:
   853                           
   854                           ;initializer for _gear
   855     1082  3485               	retlw	low (STR_1| (0+32768))
   856     1083  3489               	retlw	high (STR_1| (0+32768))
   857     1084  348B               	retlw	low (STR_2| (0+32768))
   858     1085  3489               	retlw	high (STR_2| (0+32768))
   859     1086  3473               	retlw	low (STR_3| (0+32768))
   860     1087  3489               	retlw	high (STR_3| (0+32768))
   861     1088  3476               	retlw	low (STR_4| (0+32768))
   862     1089  3489               	retlw	high (STR_4| (0+32768))
   863     108A  3479               	retlw	low (STR_5| (0+32768))
   864     108B  3489               	retlw	high (STR_5| (0+32768))
   865     108C  347C               	retlw	low (STR_6| (0+32768))
   866     108D  3489               	retlw	high (STR_6| (0+32768))
   867                           
   868                           ;initializer for _menu
   869     108E  3454               	retlw	low (STR_14| (0+32768))
   870     108F  3489               	retlw	high (STR_14| (0+32768))
   871     1090  344A               	retlw	low (STR_15| (0+32768))
   872     1091  3489               	retlw	high (STR_15| (0+32768))
   873     1092  34F0               	retlw	low (STR_16| (0+32768))
   874     1093  3488               	retlw	high (STR_16| (0+32768))
   875     1094  3440               	retlw	low (STR_17| (0+32768))
   876     1095  3489               	retlw	high (STR_17| (0+32768))
   877     1096  34D0               	retlw	low (STR_18| (0+32768))
   878     1097  3488               	retlw	high (STR_18| (0+32768))
   879                           
   880                           ;initializer for main@F1251
   881     1098  344F               	retlw	79
   882     1099  344E               	retlw	78
   883     109A  3400               	retlw	0
   884     0019                     _TXREG	set	25
   885     0006                     _PORTB	set	6
   886     0013                     _SSPBUF	set	19
   887     0008                     _PORTD	set	8
   888     001E                     _ADRESH	set	30
   889     0064                     _TXIF	set	100
   890     00C4                     _CREN	set	196
   891     00C7                     _SPEN	set	199
   892     0061                     _TMR2IF	set	97
   893     0091                     _T2CKPS1	set	145
   894     0090                     _T2CKPS0	set	144
   895     00A5                     _SSPEN	set	165
   896     00A3                     _SSPM3	set	163
   897     0049                     _RE1	set	73
   898     004A                     _RE2	set	74
   899     00FA                     _nDONE	set	250
   900     00FA                     _GO	set	250
   901     00F8                     _ADON	set	248
   902     0092                     _TMR2ON	set	146
   903     005E                     _PEIE	set	94
   904     005F                     _GIE	set	95
   905     0099                     _SPBRG	set	153
   906     0092                     _PR2	set	146
   907     0086                     _TRISB	set	134
   908     0091                     _SSPCON2	set	145
   909     0093                     _SSPADD	set	147
   910     0088                     _TRISD	set	136
   911     009E                     _ADRESL	set	158
   912     04C5                     _TXEN	set	1221
   913     04C2                     _BRGH	set	1218
   914     0461                     _TMR2IE	set	1121
   915     048E                     _ACKSTAT	set	1166
   916     048C                     _ACKEN	set	1164
   917     048D                     _ACKDT	set	1165
   918     048B                     _RCEN	set	1163
   919     048A                     _PEN	set	1162
   920     0489                     _RSEN	set	1161
   921     0488                     _SEN	set	1160
   922     04A2                     _R_nW	set	1186
   923     0449                     _TRISE1	set	1097
   924     044A                     _TRISE2	set	1098
   925     04FF                     _ADFM	set	1279
   926                           
   927                           	psect	strings
   928     1000                     __pstrings:
   929     1000                     stringtab:
   930     1000                     __stringtab:
   931                           
   932                           ;	String table - string pointers are 2 bytes each
   933     1000  1BFF               	btfsc	btemp+1,7
   934     1001  280A               	ljmp	stringcode
   935     1002  1383               	bcf	3,7
   936     1003  187F               	btfsc	btemp+1,0
   937     1004  1783               	bsf	3,7
   938     1005  0800               	movf	0,w
   939     1006  0A84               	incf	4,f
   940     1007  1903               	skipnz
   941     1008  0AFF               	incf	btemp+1,f
   942     1009  0008               	return
   943     100A                     stringcode:
   944     100A  087F               	movf	btemp+1,w
   945     100B  397F               	andlw	127
   946     100C  008A               	movwf	10
   947     100D  0804               	movf	4,w
   948     100E  0A84               	incf	4,f
   949     100F  1903               	skipnz
   950     1010  0AFF               	incf	btemp+1,f
   951     1011  0082               	movwf	2
   952     1012                     __stringbase:
   953     1012                     __end_of__stringtab:
   954                           
   955                           	psect	stringtext
   956     0800                     __pstringtext:
   957     0800                     STR_40:
   958     0800  3452               	retlw	82	;'R'
   959     0801  3465               	retlw	101	;'e'
   960     0802  3420               	retlw	32	;' '
   961     0803  3465               	retlw	101	;'e'
   962     0804  346E               	retlw	110	;'n'
   963     0805  3474               	retlw	116	;'t'
   964     0806  3465               	retlw	101	;'e'
   965     0807  3472               	retlw	114	;'r'
   966     0808  3420               	retlw	32	;' '
   967     0809  346E               	retlw	110	;'n'
   968     080A  3465               	retlw	101	;'e'
   969     080B  3477               	retlw	119	;'w'
   970     080C  3420               	retlw	32	;' '
   971     080D  3470               	retlw	112	;'p'
   972     080E  3477               	retlw	119	;'w'
   973     080F  3464               	retlw	100	;'d'
   974     0810  3420               	retlw	32	;' '
   975     0811  3420               	retlw	32	;' '
   976     0812  3420               	retlw	32	;' '
   977     0813  3420               	retlw	32	;' '
   978     0814  3400               	retlw	0
   979     0815                     STR_26:
   980     0815  3420               	retlw	32	;' '
   981     0816  3420               	retlw	32	;' '
   982     0817  3420               	retlw	32	;' '
   983     0818  3420               	retlw	32	;' '
   984     0819  3420               	retlw	32	;' '
   985     081A  3420               	retlw	32	;' '
   986     081B  3420               	retlw	32	;' '
   987     081C  3420               	retlw	32	;' '
   988     081D  3420               	retlw	32	;' '
   989     081E  3420               	retlw	32	;' '
   990     081F  3420               	retlw	32	;' '
   991     0820  3420               	retlw	32	;' '
   992     0821  3420               	retlw	32	;' '
   993     0822  3420               	retlw	32	;' '
   994     0823  3420               	retlw	32	;' '
   995     0824  3420               	retlw	32	;' '
   996     0825  3420               	retlw	32	;' '
   997     0826  3400               	retlw	0
   998     0827                     STR_39:
   999     0827  3445               	retlw	69	;'E'
  1000     0828  346E               	retlw	110	;'n'
  1001     0829  3474               	retlw	116	;'t'
  1002     082A  3465               	retlw	101	;'e'
  1003     082B  3472               	retlw	114	;'r'
  1004     082C  3420               	retlw	32	;' '
  1005     082D  346E               	retlw	110	;'n'
  1006     082E  3465               	retlw	101	;'e'
  1007     082F  3477               	retlw	119	;'w'
  1008     0830  3420               	retlw	32	;' '
  1009     0831  3470               	retlw	112	;'p'
  1010     0832  3477               	retlw	119	;'w'
  1011     0833  3464               	retlw	100	;'d'
  1012     0834  3420               	retlw	32	;' '
  1013     0835  3420               	retlw	32	;' '
  1014     0836  3420               	retlw	32	;' '
  1015     0837  3420               	retlw	32	;' '
  1016     0838  3400               	retlw	0
  1017     0839                     STR_22:
  1018     0839  3420               	retlw	32	;' '
  1019     083A  3457               	retlw	87	;'W'
  1020     083B  3452               	retlw	82	;'R'
  1021     083C  344F               	retlw	79	;'O'
  1022     083D  344E               	retlw	78	;'N'
  1023     083E  3447               	retlw	71	;'G'
  1024     083F  3420               	retlw	32	;' '
  1025     0840  3450               	retlw	80	;'P'
  1026     0841  3441               	retlw	65	;'A'
  1027     0842  3453               	retlw	83	;'S'
  1028     0843  3453               	retlw	83	;'S'
  1029     0844  3457               	retlw	87	;'W'
  1030     0845  344F               	retlw	79	;'O'
  1031     0846  3452               	retlw	82	;'R'
  1032     0847  3444               	retlw	68	;'D'
  1033     0848  3420               	retlw	32	;' '
  1034     0849  3400               	retlw	0
  1035     084A                     STR_19:
  1036     084A  3420               	retlw	32	;' '
  1037     084B  3420               	retlw	32	;' '
  1038     084C  3454               	retlw	84	;'T'
  1039     084D  3449               	retlw	73	;'I'
  1040     084E  344D               	retlw	77	;'M'
  1041     084F  3445               	retlw	69	;'E'
  1042     0850  3420               	retlw	32	;' '
  1043     0851  3420               	retlw	32	;' '
  1044     0852  3420               	retlw	32	;' '
  1045     0853  3420               	retlw	32	;' '
  1046     0854  3420               	retlw	32	;' '
  1047     0855  3445               	retlw	69	;'E'
  1048     0856  3420               	retlw	32	;' '
  1049     0857  3420               	retlw	32	;' '
  1050     0858  3453               	retlw	83	;'S'
  1051     0859  3450               	retlw	80	;'P'
  1052     085A  3400               	retlw	0
  1053     085B                     STR_21:
  1054     085B  3477               	retlw	119	;'w'
  1055     085C  3461               	retlw	97	;'a'
  1056     085D  3469               	retlw	105	;'i'
  1057     085E  3474               	retlw	116	;'t'
  1058     085F  3420               	retlw	32	;' '
  1059     0860  3466               	retlw	102	;'f'
  1060     0861  346F               	retlw	111	;'o'
  1061     0862  3472               	retlw	114	;'r'
  1062     0863  3420               	retlw	32	;' '
  1063     0864  342E               	retlw	46	;'.'
  1064     0865  342E               	retlw	46	;'.'
  1065     0866  3436               	retlw	54	;'6'
  1066     0867  3430               	retlw	48	;'0'
  1067     0868  3473               	retlw	115	;'s'
  1068     0869  3465               	retlw	101	;'e'
  1069     086A  3463               	retlw	99	;'c'
  1070     086B  3400               	retlw	0
  1071     086C                     STR_43:
  1072     086C  3450               	retlw	80	;'P'
  1073     086D  3461               	retlw	97	;'a'
  1074     086E  3473               	retlw	115	;'s'
  1075     086F  3473               	retlw	115	;'s'
  1076     0870  3477               	retlw	119	;'w'
  1077     0871  346F               	retlw	111	;'o'
  1078     0872  3472               	retlw	114	;'r'
  1079     0873  3464               	retlw	100	;'d'
  1080     0874  3420               	retlw	32	;' '
  1081     0875  3463               	retlw	99	;'c'
  1082     0876  3468               	retlw	104	;'h'
  1083     0877  3461               	retlw	97	;'a'
  1084     0878  346E               	retlw	110	;'n'
  1085     0879  3467               	retlw	103	;'g'
  1086     087A  3465               	retlw	101	;'e'
  1087     087B  3464               	retlw	100	;'d'
  1088     087C  3400               	retlw	0
  1089     087D                     STR_45:
  1090     087D  3450               	retlw	80	;'P'
  1091     087E  3461               	retlw	97	;'a'
  1092     087F  3473               	retlw	115	;'s'
  1093     0880  3473               	retlw	115	;'s'
  1094     0881  3477               	retlw	119	;'w'
  1095     0882  346F               	retlw	111	;'o'
  1096     0883  3472               	retlw	114	;'r'
  1097     0884  3464               	retlw	100	;'d'
  1098     0885  3420               	retlw	32	;' '
  1099     0886  3420               	retlw	32	;' '
  1100     0887  3463               	retlw	99	;'c'
  1101     0888  3468               	retlw	104	;'h'
  1102     0889  3461               	retlw	97	;'a'
  1103     088A  346E               	retlw	110	;'n'
  1104     088B  3467               	retlw	103	;'g'
  1105     088C  3465               	retlw	101	;'e'
  1106     088D  3400               	retlw	0
  1107     088E                     STR_25:
  1108     088E  344E               	retlw	78	;'N'
  1109     088F  346F               	retlw	111	;'o'
  1110     0890  3420               	retlw	32	;' '
  1111     0891  346C               	retlw	108	;'l'
  1112     0892  346F               	retlw	111	;'o'
  1113     0893  3467               	retlw	103	;'g'
  1114     0894  3473               	retlw	115	;'s'
  1115     0895  3420               	retlw	32	;' '
  1116     0896  3461               	retlw	97	;'a'
  1117     0897  3476               	retlw	118	;'v'
  1118     0898  3461               	retlw	97	;'a'
  1119     0899  3469               	retlw	105	;'i'
  1120     089A  3461               	retlw	97	;'a'
  1121     089B  3462               	retlw	98	;'b'
  1122     089C  346C               	retlw	108	;'l'
  1123     089D  3465               	retlw	101	;'e'
  1124     089E  3400               	retlw	0
  1125     089F                     STR_8:
  1126     089F  3420               	retlw	32	;' '
  1127     08A0  3445               	retlw	69	;'E'
  1128     08A1  344E               	retlw	78	;'N'
  1129     08A2  3454               	retlw	84	;'T'
  1130     08A3  3445               	retlw	69	;'E'
  1131     08A4  3452               	retlw	82	;'R'
  1132     08A5  3420               	retlw	32	;' '
  1133     08A6  3450               	retlw	80	;'P'
  1134     08A7  3441               	retlw	65	;'A'
  1135     08A8  3453               	retlw	83	;'S'
  1136     08A9  3453               	retlw	83	;'S'
  1137     08AA  3457               	retlw	87	;'W'
  1138     08AB  344F               	retlw	79	;'O'
  1139     08AC  3452               	retlw	82	;'R'
  1140     08AD  3444               	retlw	68	;'D'
  1141     08AE  3420               	retlw	32	;' '
  1142     08AF  3400               	retlw	0
  1143     08B0                     STR_32:
  1144     08B0  3454               	retlw	84	;'T'
  1145     08B1  3469               	retlw	105	;'i'
  1146     08B2  346D               	retlw	109	;'m'
  1147     08B3  3465               	retlw	101	;'e'
  1148     08B4  3420               	retlw	32	;' '
  1149     08B5  3428               	retlw	40	;'('
  1150     08B6  3448               	retlw	72	;'H'
  1151     08B7  3448               	retlw	72	;'H'
  1152     08B8  343A               	retlw	58	;':'
  1153     08B9  344D               	retlw	77	;'M'
  1154     08BA  344D               	retlw	77	;'M'
  1155     08BB  343A               	retlw	58	;':'
  1156     08BC  3453               	retlw	83	;'S'
  1157     08BD  3453               	retlw	83	;'S'
  1158     08BE  3429               	retlw	41	;')'
  1159     08BF  3400               	retlw	0
  1160     08C0                     STR_20:
  1161     08C0  3459               	retlw	89	;'Y'
  1162     08C1  346F               	retlw	111	;'o'
  1163     08C2  3475               	retlw	117	;'u'
  1164     08C3  3420               	retlw	32	;' '
  1165     08C4  3461               	retlw	97	;'a'
  1166     08C5  3472               	retlw	114	;'r'
  1167     08C6  3465               	retlw	101	;'e'
  1168     08C7  3420               	retlw	32	;' '
  1169     08C8  3462               	retlw	98	;'b'
  1170     08C9  346C               	retlw	108	;'l'
  1171     08CA  346F               	retlw	111	;'o'
  1172     08CB  3463               	retlw	99	;'c'
  1173     08CC  346B               	retlw	107	;'k'
  1174     08CD  3465               	retlw	101	;'e'
  1175     08CE  3464               	retlw	100	;'d'
  1176     08CF  3400               	retlw	0
  1177     08D0                     STR_18:
  1178     08D0  3463               	retlw	99	;'c'
  1179     08D1  3468               	retlw	104	;'h'
  1180     08D2  3461               	retlw	97	;'a'
  1181     08D3  346E               	retlw	110	;'n'
  1182     08D4  3467               	retlw	103	;'g'
  1183     08D5  3465               	retlw	101	;'e'
  1184     08D6  3420               	retlw	32	;' '
  1185     08D7  3470               	retlw	112	;'p'
  1186     08D8  3461               	retlw	97	;'a'
  1187     08D9  3473               	retlw	115	;'s'
  1188     08DA  3473               	retlw	115	;'s'
  1189     08DB  3477               	retlw	119	;'w'
  1190     08DC  346F               	retlw	111	;'o'
  1191     08DD  3472               	retlw	114	;'r'
  1192     08DE  3464               	retlw	100	;'d'
  1193     08DF  3400               	retlw	0
  1194     08E0                     STR_23:
  1195     08E0  3461               	retlw	97	;'a'
  1196     08E1  3474               	retlw	116	;'t'
  1197     08E2  3474               	retlw	116	;'t'
  1198     08E3  3465               	retlw	101	;'e'
  1199     08E4  346D               	retlw	109	;'m'
  1200     08E5  3470               	retlw	112	;'p'
  1201     08E6  3474               	retlw	116	;'t'
  1202     08E7  3420               	retlw	32	;' '
  1203     08E8  3452               	retlw	82	;'R'
  1204     08E9  3465               	retlw	101	;'e'
  1205     08EA  346D               	retlw	109	;'m'
  1206     08EB  3461               	retlw	97	;'a'
  1207     08EC  3469               	retlw	105	;'i'
  1208     08ED  346E               	retlw	110	;'n'
  1209     08EE  3473               	retlw	115	;'s'
  1210     08EF  3400               	retlw	0
  1211     08F0                     STR_16:
  1212     08F0  3444               	retlw	68	;'D'
  1213     08F1  346F               	retlw	111	;'o'
  1214     08F2  3477               	retlw	119	;'w'
  1215     08F3  346E               	retlw	110	;'n'
  1216     08F4  346C               	retlw	108	;'l'
  1217     08F5  346F               	retlw	111	;'o'
  1218     08F6  3461               	retlw	97	;'a'
  1219     08F7  3464               	retlw	100	;'d'
  1220     08F8  3420               	retlw	32	;' '
  1221     08F9  346C               	retlw	108	;'l'
  1222     08FA  346F               	retlw	111	;'o'
  1223     08FB  3467               	retlw	103	;'g'
  1224     08FC  3420               	retlw	32	;' '
  1225     08FD  3400               	retlw	0
  1226     08FE                     STR_44:
  1227     08FE  3473               	retlw	115	;'s'
  1228     08FF  3475               	retlw	117	;'u'
  1229     0900  3463               	retlw	99	;'c'
  1230     0901  3463               	retlw	99	;'c'
  1231     0902  3465               	retlw	101	;'e'
  1232     0903  3473               	retlw	115	;'s'
  1233     0904  3473               	retlw	115	;'s'
  1234     0905  3466               	retlw	102	;'f'
  1235     0906  3475               	retlw	117	;'u'
  1236     0907  346C               	retlw	108	;'l'
  1237     0908  346C               	retlw	108	;'l'
  1238     0909  3479               	retlw	121	;'y'
  1239     090A  3420               	retlw	32	;' '
  1240     090B  3400               	retlw	0
  1241     090C                     STR_33:
  1242     090C  3454               	retlw	84	;'T'
  1243     090D  3469               	retlw	105	;'i'
  1244     090E  346D               	retlw	109	;'m'
  1245     090F  3465               	retlw	101	;'e'
  1246     0910  3420               	retlw	32	;' '
  1247     0911  3463               	retlw	99	;'c'
  1248     0912  3468               	retlw	104	;'h'
  1249     0913  3461               	retlw	97	;'a'
  1250     0914  346E               	retlw	110	;'n'
  1251     0915  3467               	retlw	103	;'g'
  1252     0916  3465               	retlw	101	;'e'
  1253     0917  3464               	retlw	100	;'d'
  1254     0918  3400               	retlw	0
  1255     0919                     STR_28:
  1256     0919  344C               	retlw	76	;'L'
  1257     091A  346F               	retlw	111	;'o'
  1258     091B  3467               	retlw	103	;'g'
  1259     091C  3473               	retlw	115	;'s'
  1260     091D  3420               	retlw	32	;' '
  1261     091E  3463               	retlw	99	;'c'
  1262     091F  346C               	retlw	108	;'l'
  1263     0920  3465               	retlw	101	;'e'
  1264     0921  3461               	retlw	97	;'a'
  1265     0922  3472               	retlw	114	;'r'
  1266     0923  3465               	retlw	101	;'e'
  1267     0924  3464               	retlw	100	;'d'
  1268     0925  3400               	retlw	0
  1269     0926                     STR_34:
  1270     0926  3453               	retlw	83	;'S'
  1271     0927  3475               	retlw	117	;'u'
  1272     0928  3463               	retlw	99	;'c'
  1273     0929  3463               	retlw	99	;'c'
  1274     092A  3465               	retlw	101	;'e'
  1275     092B  3473               	retlw	115	;'s'
  1276     092C  3473               	retlw	115	;'s'
  1277     092D  3466               	retlw	102	;'f'
  1278     092E  3475               	retlw	117	;'u'
  1279     092F  346C               	retlw	108	;'l'
  1280     0930  346C               	retlw	108	;'l'
  1281     0931  3479               	retlw	121	;'y'
  1282     0932  3400               	retlw	0
  1283     0933                     STR_29:
  1284     0933  3473               	retlw	115	;'s'
  1285     0934  3475               	retlw	117	;'u'
  1286     0935  3463               	retlw	99	;'c'
  1287     0936  3463               	retlw	99	;'c'
  1288     0937  3465               	retlw	101	;'e'
  1289     0938  3473               	retlw	115	;'s'
  1290     0939  3473               	retlw	115	;'s'
  1291     093A  3466               	retlw	102	;'f'
  1292     093B  3475               	retlw	117	;'u'
  1293     093C  346C               	retlw	108	;'l'
  1294     093D  346C               	retlw	108	;'l'
  1295     093E  3479               	retlw	121	;'y'
  1296     093F  3400               	retlw	0
  1297     0940                     STR_17:
  1298     0940  3473               	retlw	115	;'s'
  1299     0941  3465               	retlw	101	;'e'
  1300     0942  3474               	retlw	116	;'t'
  1301     0943  3420               	retlw	32	;' '
  1302     0944  3474               	retlw	116	;'t'
  1303     0945  3469               	retlw	105	;'i'
  1304     0946  346D               	retlw	109	;'m'
  1305     0947  3465               	retlw	101	;'e'
  1306     0948  3420               	retlw	32	;' '
  1307     0949  3400               	retlw	0
  1308     094A                     STR_15:
  1309     094A  3463               	retlw	99	;'c'
  1310     094B  346C               	retlw	108	;'l'
  1311     094C  3465               	retlw	101	;'e'
  1312     094D  3461               	retlw	97	;'a'
  1313     094E  3472               	retlw	114	;'r'
  1314     094F  3420               	retlw	32	;' '
  1315     0950  346C               	retlw	108	;'l'
  1316     0951  346F               	retlw	111	;'o'
  1317     0952  3467               	retlw	103	;'g'
  1318     0953  3400               	retlw	0
  1319     0954                     STR_14:
  1320     0954  3476               	retlw	118	;'v'
  1321     0955  3469               	retlw	105	;'i'
  1322     0956  3465               	retlw	101	;'e'
  1323     0957  3477               	retlw	119	;'w'
  1324     0958  3420               	retlw	32	;' '
  1325     0959  346C               	retlw	108	;'l'
  1326     095A  346F               	retlw	111	;'o'
  1327     095B  3467               	retlw	103	;'g'
  1328     095C  3400               	retlw	0
  1329     095D                     STR_31:
  1330     095D  344C               	retlw	76	;'L'
  1331     095E  346F               	retlw	111	;'o'
  1332     095F  3467               	retlw	103	;'g'
  1333     0960  3473               	retlw	115	;'s'
  1334     0961  3420               	retlw	32	;' '
  1335     0962  343A               	retlw	58	;':'
  1336     0963  3400               	retlw	0
  1337     0964                     STR_46:
  1338     0964  3466               	retlw	102	;'f'
  1339     0965  3461               	retlw	97	;'a'
  1340     0966  3469               	retlw	105	;'i'
  1341     0967  346C               	retlw	108	;'l'
  1342     0968  3465               	retlw	101	;'e'
  1343     0969  3464               	retlw	100	;'d'
  1344     096A  3400               	retlw	0
  1345     096B                     STR_9:
  1346     096B  344C               	retlw	76	;'L'
  1347     096C  346F               	retlw	111	;'o'
  1348     096D  3467               	retlw	103	;'g'
  1349     096E  3473               	retlw	115	;'s'
  1350     096F  3400               	retlw	0
  1351     0970                     STR_7:
  1352     0970  3443               	retlw	67	;'C'
  1353     0971  3420               	retlw	32	;' '
  1354     0972  3400               	retlw	0
  1355     0973                     STR_3:
  1356     0973  3447               	retlw	71	;'G'
  1357     0974  3431               	retlw	49	;'1'
  1358     0975  3400               	retlw	0
  1359     0976                     STR_4:
  1360     0976  3447               	retlw	71	;'G'
  1361     0977  3432               	retlw	50	;'2'
  1362     0978  3400               	retlw	0
  1363     0979                     STR_5:
  1364     0979  3447               	retlw	71	;'G'
  1365     097A  3433               	retlw	51	;'3'
  1366     097B  3400               	retlw	0
  1367     097C                     STR_6:
  1368     097C  3447               	retlw	71	;'G'
  1369     097D  3434               	retlw	52	;'4'
  1370     097E  3400               	retlw	0
  1371     097F                     STR_13:
  1372     097F  3443               	retlw	67	;'C'
  1373     0980  344C               	retlw	76	;'L'
  1374     0981  3400               	retlw	0
  1375     0982                     STR_10:
  1376     0982  3444               	retlw	68	;'D'
  1377     0983  344C               	retlw	76	;'L'
  1378     0984  3400               	retlw	0
  1379     0985                     STR_1:
  1380     0985  3447               	retlw	71	;'G'
  1381     0986  344E               	retlw	78	;'N'
  1382     0987  3400               	retlw	0
  1383     0988                     STR_12:
  1384     0988  3443               	retlw	67	;'C'
  1385     0989  3450               	retlw	80	;'P'
  1386     098A  3400               	retlw	0
  1387     098B                     STR_2:
  1388     098B  3447               	retlw	71	;'G'
  1389     098C  3452               	retlw	82	;'R'
  1390     098D  3400               	retlw	0
  1391     098E                     STR_11:
  1392     098E  3443               	retlw	67	;'C'
  1393     098F  3454               	retlw	84	;'T'
  1394     0990  3400               	retlw	0
  1395     0824                     
  1396                           	psect	cinit
  1397     0011                     start_initialization:	
  1398                           ; #config settings
  1399                           
  1400     0011                     __initialization:
  1401                           
  1402                           ; Initialize objects allocated to BANK1
  1403     0011  1383               	bcf	3,7	;select IRP bank0
  1404     0012  30DD               	movlw	low (__pdataBANK1+25)
  1405     0013  00FD               	movwf	btemp+-1
  1406     0014  3010               	movlw	high __pidataBANK1
  1407     0015  00FE               	movwf	btemp
  1408     0016  3082               	movlw	low __pidataBANK1
  1409     0017  00FF               	movwf	btemp+1
  1410     0018  30C4               	movlw	low __pdataBANK1
  1411     0019  0084               	movwf	4
  1412     001A  160A  118A  2049  120A  118A  	fcall	init_ram0
  1413                           
  1414                           ; Initialize objects allocated to BANK0
  1415     001F  3068               	movlw	low (__pdataBANK0+8)
  1416     0020  00FD               	movwf	btemp+-1
  1417     0021  301F               	movlw	high __pidataBANK0
  1418     0022  00FE               	movwf	btemp
  1419     0023  30AF               	movlw	low __pidataBANK0
  1420     0024  00FF               	movwf	btemp+1
  1421     0025  3060               	movlw	low __pdataBANK0
  1422     0026  0084               	movwf	4
  1423     0027  160A  118A  2049  120A  118A  	fcall	init_ram0
  1424                           
  1425                           ; Clear objects allocated to BANK1
  1426     002C  30A0               	movlw	low __pbssBANK1
  1427     002D  0084               	movwf	4
  1428     002E  30C4               	movlw	low (__pbssBANK1+36)
  1429     002F  160A  158A  27A7  120A  118A  	fcall	clear_ram0
  1430                           
  1431                           ; Clear objects allocated to BANK0
  1432     0034  3042               	movlw	low __pbssBANK0
  1433     0035  0084               	movwf	4
  1434     0036  3060               	movlw	low (__pbssBANK0+30)
  1435     0037  160A  158A  27A7  120A  118A  	fcall	clear_ram0
  1436                           
  1437                           ; Clear objects allocated to COMMON
  1438     003C  01F9               	clrf	__pbssCOMMON& (0+127)
  1439     003D  01FA               	clrf	(__pbssCOMMON+1)& (0+127)
  1440     003E                     end_of_initialization:	
  1441                           ;End of C runtime variable initialization code
  1442                           
  1443     003E                     __end_of__initialization:
  1444     003E  0183               	clrf	3
  1445     003F  120A  118A  2842   	ljmp	_main	;jump to C main() function
  1446                           
  1447                           	psect	bssCOMMON
  1448     0079                     __pbssCOMMON:
  1449     0079                     read_digital_keypad@pre_key:
  1450     0079                     	ds	1
  1451     007A                     read_digital_keypad@once:
  1452     007A                     	ds	1
  1453                           
  1454                           	psect	bssBANK0
  1455     0042                     __pbssBANK0:
  1456     0042                     change_time@new_time:
  1457     0042                     	ds	6
  1458     0048                     _clock_reg:
  1459     0048                     	ds	3
  1460     004B                     isr@count:
  1461     004B                     	ds	2
  1462     004D                     change_password@n_p_pos:
  1463     004D                     	ds	2
  1464     004F                     change_time@blink_pos:
  1465     004F                     	ds	2
  1466     0051                     view_log@shift:
  1467     0051                     	ds	2
  1468     0053                     login_menu@menu_pos:
  1469     0053                     	ds	2
  1470     0055                     _return_time:
  1471     0055                     	ds	2
  1472     0057                     _sec:
  1473     0057                     	ds	2
  1474     0059                     change_password@p_chg:
  1475     0059                     	ds	1
  1476     005A                     change_time@t_done:
  1477     005A                     	ds	1
  1478     005B                     change_time@blink:
  1479     005B                     	ds	1
  1480     005C                     change_time@wait:
  1481     005C                     	ds	1
  1482     005D                     login@attempt_rem:
  1483     005D                     	ds	1
  1484     005E                     login@i:
  1485     005E                     	ds	1
  1486     005F                     _overflow:
  1487     005F                     	ds	1
  1488                           
  1489                           	psect	dataBANK0
  1490     0060                     __pdataBANK0:
  1491     0060                     read_digital_keypad@longpressed:
  1492     0060                     	ds	2
  1493     0062                     login_menu@select_pos:
  1494     0062                     	ds	2
  1495     0064                     _access:
  1496     0064                     	ds	2
  1497     0066                     _pos:
  1498     0066                     	ds	2
  1499                           
  1500                           	psect	bssBANK1
  1501     00A0                     __pbssBANK1:
  1502     00A0                     _count1:
  1503     00A0                     	ds	2
  1504     00A2                     _count:
  1505     00A2                     	ds	2
  1506     00A4                     _log:
  1507     00A4                     	ds	11
  1508     00AF                     change_password@r_pwd:
  1509     00AF                     	ds	9
  1510     00B8                     _time:
  1511     00B8                     	ds	7
  1512     00BF                     login@npassword:
  1513     00BF                     	ds	5
  1514                           
  1515                           	psect	dataBANK1
  1516     00C4                     __pdataBANK1:
  1517     00C4                     _gear:
  1518     00C4                     	ds	12
  1519     00D0                     _menu:
  1520     00D0                     	ds	10
  1521     00DA                     main@F1251:
  1522     00DA                     	ds	3
  1523                           
  1524                           	psect	inittext
  1525     1045                     init_fetch0:	
  1526                           ;	Called with low address in FSR and high address in W
  1527                           
  1528     1045  087E               	movf	btemp,w
  1529     1046  008A               	movwf	10
  1530     1047  087F               	movf	btemp+1,w
  1531     1048  0082               	movwf	2
  1532     1049                     init_ram0:	
  1533                           ;Called with:
  1534                           ;	high address of idata address in btemp 
  1535                           ;	low address of idata address in btemp+1 
  1536                           ;	low address of data in FSR
  1537                           ;	high address + 1 of data in btemp-1
  1538                           
  1539     1049  160A  118A  2045  160A  118A  	fcall	init_fetch0
  1540     104E  0080               	movwf	0
  1541     104F  0A84               	incf	4,f
  1542     1050  0804               	movf	4,w
  1543     1051  067D               	xorwf	btemp+-1,w
  1544     1052  1903               	btfsc	3,2
  1545     1053  3400               	retlw	0
  1546     1054  0AFF               	incf	btemp+1,f
  1547     1055  1903               	btfsc	3,2
  1548     1056  0AFE               	incf	btemp,f
  1549     1057  2849               	goto	init_ram0
  1550                           
  1551                           	psect	clrtext
  1552     1FA7                     clear_ram0:	
  1553                           ;	Called with FSR containing the base address, and
  1554                           ;	W with the last address+1
  1555                           
  1556     1FA7  0064               	clrwdt	;clear the watchdog before getting into this loop
  1557     1FA8                     clrloop0:
  1558     1FA8  0180               	clrf	0	;clear RAM location pointed to by FSR
  1559     1FA9  0A84               	incf	4,f	;increment pointer
  1560     1FAA  0604               	xorwf	4,w	;XOR with final address
  1561     1FAB  1903               	btfsc	3,2	;have we reached the end yet?
  1562     1FAC  3400               	retlw	0	;all done for this memory range, return
  1563     1FAD  0604               	xorwf	4,w	;XOR again to restore value
  1564     1FAE  2FA8               	goto	clrloop0	;do the next byte
  1565                           
  1566                           	psect	cstackBANK1
  1567     00DD                     __pcstackBANK1:
  1568     00DD                     main@i:
  1569                           
  1570                           ; 2 bytes @ 0x0
  1571     00DD                     	ds	2
  1572     00DF                     main@menu_pos:
  1573                           
  1574                           ; 1 bytes @ 0x2
  1575     00DF                     	ds	1
  1576     00E0                     main@event:
  1577                           
  1578                           ; 3 bytes @ 0x3
  1579     00E0                     	ds	3
  1580     00E3                     main@gr:
  1581                           
  1582                           ; 1 bytes @ 0x6
  1583     00E3                     	ds	1
  1584     00E4                     main@wait_time:
  1585                           
  1586                           ; 2 bytes @ 0x7
  1587     00E4                     	ds	2
  1588     00E6                     main@control_flag:
  1589                           
  1590                           ; 1 bytes @ 0x9
  1591     00E6                     	ds	1
  1592     00E7                     main@reset_flag:
  1593                           
  1594                           ; 1 bytes @ 0xA
  1595     00E7                     	ds	1
  1596     00E8                     main@speed:
  1597                           
  1598                           ; 1 bytes @ 0xB
  1599     00E8                     	ds	1
  1600     00E9                     main@key:
  1601                           
  1602                           ; 1 bytes @ 0xC
  1603     00E9                     	ds	1
  1604                           
  1605                           	psect	cstackCOMMON
  1606     0070                     __pcstackCOMMON:
  1607     0070                     ?_init_clcd:
  1608     0070                     ?_init_ds1307:	
  1609                           ; 1 bytes @ 0x0
  1610                           
  1611     0070                     ?_init_adc:	
  1612                           ; 1 bytes @ 0x0
  1613                           
  1614     0070                     ?_init_digital_keypad:	
  1615                           ; 1 bytes @ 0x0
  1616                           
  1617     0070                     ?_init_timer2:	
  1618                           ; 1 bytes @ 0x0
  1619                           
  1620     0070                     ?_read_digital_keypad:	
  1621                           ; 1 bytes @ 0x0
  1622                           
  1623     0070                     ?_download_log:	
  1624                           ; 1 bytes @ 0x0
  1625                           
  1626     0070                     ?_clear_log:	
  1627                           ; 1 bytes @ 0x0
  1628                           
  1629     0070                     ?_read_ds1307:	
  1630                           ; 1 bytes @ 0x0
  1631                           
  1632     0070                     ?_i2c_start:	
  1633                           ; 1 bytes @ 0x0
  1634                           
  1635     0070                     ?_i2c_rep_start:	
  1636                           ; 1 bytes @ 0x0
  1637                           
  1638     0070                     ?_i2c_read:	
  1639                           ; 1 bytes @ 0x0
  1640                           
  1641     0070                     ?_i2c_stop:	
  1642                           ; 1 bytes @ 0x0
  1643                           
  1644     0070                     ?_ext_eeprom_24C02_read:	
  1645                           ; 1 bytes @ 0x0
  1646                           
  1647     0070                     ?_putchars:	
  1648                           ; 1 bytes @ 0x0
  1649                           
  1650     0070                     ?_init_config:	
  1651                           ; 1 bytes @ 0x0
  1652                           
  1653     0070                     ?_main:	
  1654                           ; 1 bytes @ 0x0
  1655                           
  1656     0070                     ?_init_display_controller:	
  1657                           ; 1 bytes @ 0x0
  1658                           
  1659     0070                     ?_i2c_wait_for_idle:	
  1660                           ; 1 bytes @ 0x0
  1661                           
  1662     0070                     ?_get_time:	
  1663                           ; 1 bytes @ 0x0
  1664                           
  1665     0070                     ?_display_time:	
  1666                           ; 1 bytes @ 0x0
  1667                           
  1668     0070                     ?_log_event:	
  1669                           ; 1 bytes @ 0x0
  1670                           
  1671     0070                     ?_get_password:	
  1672                           ; 1 bytes @ 0x0
  1673                           
  1674     0070                     ?_isr:	
  1675                           ; 1 bytes @ 0x0
  1676                           
  1677     0070                     ??_isr:	
  1678                           ; 1 bytes @ 0x0
  1679                           
  1680     0070                     ?_i2c_write:	
  1681                           ; 1 bytes @ 0x0
  1682                           
  1683                           
  1684                           ; 2 bytes @ 0x0
  1685     0070                     	ds	3
  1686     0073                     ??_init_adc:
  1687     0073                     ??_init_digital_keypad:	
  1688                           ; 1 bytes @ 0x3
  1689                           
  1690     0073                     ??_init_timer2:	
  1691                           ; 1 bytes @ 0x3
  1692                           
  1693     0073                     ??_read_digital_keypad:	
  1694                           ; 1 bytes @ 0x3
  1695                           
  1696     0073                     ?_strcpy:	
  1697                           ; 1 bytes @ 0x3
  1698                           
  1699     0073                     ?_clcd_write:	
  1700                           ; 1 bytes @ 0x3
  1701                           
  1702     0073                     ??_i2c_start:	
  1703                           ; 1 bytes @ 0x3
  1704                           
  1705     0073                     ??_i2c_write:	
  1706                           ; 1 bytes @ 0x3
  1707                           
  1708     0073                     ??_i2c_rep_start:	
  1709                           ; 1 bytes @ 0x3
  1710                           
  1711     0073                     ??_i2c_read:	
  1712                           ; 1 bytes @ 0x3
  1713                           
  1714     0073                     ??_i2c_stop:	
  1715                           ; 1 bytes @ 0x3
  1716                           
  1717     0073                     ?_strncpy:	
  1718                           ; 1 bytes @ 0x3
  1719                           
  1720     0073                     ??_putchars:	
  1721                           ; 1 bytes @ 0x3
  1722                           
  1723     0073                     ??_i2c_wait_for_idle:	
  1724                           ; 1 bytes @ 0x3
  1725                           
  1726     0073                     ?___bmul:	
  1727                           ; 1 bytes @ 0x3
  1728                           
  1729     0073                     ??___lldiv:	
  1730                           ; 1 bytes @ 0x3
  1731                           
  1732     0073                     ?_read_adc:	
  1733                           ; 1 bytes @ 0x3
  1734                           
  1735     0073                     ?_strcmp:	
  1736                           ; 2 bytes @ 0x3
  1737                           
  1738     0073                     ?_strncmp:	
  1739                           ; 2 bytes @ 0x3
  1740                           
  1741     0073                     ?___wmul:	
  1742                           ; 2 bytes @ 0x3
  1743                           
  1744     0073                     ?___awdiv:	
  1745                           ; 2 bytes @ 0x3
  1746                           
  1747     0073                     ?___awmod:	
  1748                           ; 2 bytes @ 0x3
  1749                           
  1750     0073                     ?___lwmod:	
  1751                           ; 2 bytes @ 0x3
  1752                           
  1753     0073                     clcd_write@mode:	
  1754                           ; 2 bytes @ 0x3
  1755                           
  1756     0073                     i2c_read@ack:	
  1757                           ; 1 bytes @ 0x3
  1758                           
  1759     0073                     i2c_write@data:	
  1760                           ; 1 bytes @ 0x3
  1761                           
  1762     0073                     read_digital_keypad@key:	
  1763                           ; 1 bytes @ 0x3
  1764                           
  1765     0073                     putchars@data:	
  1766                           ; 1 bytes @ 0x3
  1767                           
  1768     0073                     ___bmul@multiplicand:	
  1769                           ; 1 bytes @ 0x3
  1770                           
  1771     0073                     strcmp@r:	
  1772                           ; 1 bytes @ 0x3
  1773                           
  1774     0073                     strncmp@r:	
  1775                           ; 1 bytes @ 0x3
  1776                           
  1777     0073                     ___wmul@multiplier:	
  1778                           ; 1 bytes @ 0x3
  1779                           
  1780     0073                     ___awdiv@divisor:	
  1781                           ; 2 bytes @ 0x3
  1782                           
  1783     0073                     ___awmod@divisor:	
  1784                           ; 2 bytes @ 0x3
  1785                           
  1786     0073                     ___lwmod@divisor:	
  1787                           ; 2 bytes @ 0x3
  1788                           
  1789     0073                     strcpy@src:	
  1790                           ; 2 bytes @ 0x3
  1791                           
  1792     0073                     strncpy@s:	
  1793                           ; 2 bytes @ 0x3
  1794                           
  1795                           
  1796                           ; 2 bytes @ 0x3
  1797     0073                     	ds	1
  1798     0074                     ?_ext_eeprom_24C02_byte_write:
  1799     0074                     ??_clcd_write:	
  1800                           ; 1 bytes @ 0x4
  1801                           
  1802     0074                     ?_write_ds1307:	
  1803                           ; 1 bytes @ 0x4
  1804                           
  1805     0074                     ?_putsx:	
  1806                           ; 1 bytes @ 0x4
  1807                           
  1808     0074                     ??___bmul:	
  1809                           ; 1 bytes @ 0x4
  1810                           
  1811     0074                     write_ds1307@data:	
  1812                           ; 1 bytes @ 0x4
  1813                           
  1814     0074                     i2c_read@data:	
  1815                           ; 1 bytes @ 0x4
  1816                           
  1817     0074                     ext_eeprom_24C02_byte_write@data:	
  1818                           ; 1 bytes @ 0x4
  1819                           
  1820     0074                     ___bmul@product:	
  1821                           ; 1 bytes @ 0x4
  1822                           
  1823     0074                     putsx@s:	
  1824                           ; 1 bytes @ 0x4
  1825                           
  1826     0074                     strncmp@n:	
  1827                           ; 2 bytes @ 0x4
  1828                           
  1829     0074                     ___lldiv@quotient:	
  1830                           ; 2 bytes @ 0x4
  1831                           
  1832                           
  1833                           ; 4 bytes @ 0x4
  1834     0074                     	ds	1
  1835     0075                     ??_ext_eeprom_24C02_byte_write:
  1836     0075                     ??_read_adc:	
  1837                           ; 1 bytes @ 0x5
  1838                           
  1839     0075                     ??_strcpy:	
  1840                           ; 1 bytes @ 0x5
  1841                           
  1842     0075                     ??_read_ds1307:	
  1843                           ; 1 bytes @ 0x5
  1844                           
  1845     0075                     ??_write_ds1307:	
  1846                           ; 1 bytes @ 0x5
  1847                           
  1848     0075                     ??_ext_eeprom_24C02_read:	
  1849                           ; 1 bytes @ 0x5
  1850                           
  1851     0075                     ??_strcmp:	
  1852                           ; 1 bytes @ 0x5
  1853                           
  1854     0075                     read_ds1307@addr:	
  1855                           ; 1 bytes @ 0x5
  1856                           
  1857     0075                     write_ds1307@addr:	
  1858                           ; 1 bytes @ 0x5
  1859                           
  1860     0075                     ext_eeprom_24C02_read@addr:	
  1861                           ; 1 bytes @ 0x5
  1862                           
  1863     0075                     ext_eeprom_24C02_byte_write@addr:	
  1864                           ; 1 bytes @ 0x5
  1865                           
  1866     0075                     ___bmul@multiplier:	
  1867                           ; 1 bytes @ 0x5
  1868                           
  1869     0075                     read_adc@adc_reg_val:	
  1870                           ; 1 bytes @ 0x5
  1871                           
  1872     0075                     ___wmul@multiplicand:	
  1873                           ; 2 bytes @ 0x5
  1874                           
  1875     0075                     ___awdiv@dividend:	
  1876                           ; 2 bytes @ 0x5
  1877                           
  1878     0075                     ___awmod@dividend:	
  1879                           ; 2 bytes @ 0x5
  1880                           
  1881     0075                     ___lwmod@dividend:	
  1882                           ; 2 bytes @ 0x5
  1883                           
  1884     0075                     strncpy@n:	
  1885                           ; 2 bytes @ 0x5
  1886                           
  1887                           
  1888                           ; 2 bytes @ 0x5
  1889     0075                     	ds	1
  1890     0076                     ?_ext_eeprom_24C02_str_write:
  1891     0076                     ??_putsx:	
  1892                           ; 1 bytes @ 0x6
  1893                           
  1894     0076                     ??_strncmp:	
  1895                           ; 1 bytes @ 0x6
  1896                           
  1897     0076                     clcd_write@byte:	
  1898                           ; 1 bytes @ 0x6
  1899                           
  1900     0076                     read_ds1307@data:	
  1901                           ; 1 bytes @ 0x6
  1902                           
  1903     0076                     ext_eeprom_24C02_read@data:	
  1904                           ; 1 bytes @ 0x6
  1905                           
  1906     0076                     ext_eeprom_24C02_str_write@data:	
  1907                           ; 1 bytes @ 0x6
  1908                           
  1909                           
  1910                           ; 1 bytes @ 0x6
  1911     0076                     	ds	1
  1912     0077                     ??_init_ds1307:
  1913     0077                     ??_clcd_print:	
  1914                           ; 1 bytes @ 0x7
  1915                           
  1916     0077                     ??_clear_log:	
  1917                           ; 1 bytes @ 0x7
  1918                           
  1919     0077                     ??_ext_eeprom_24C02_str_write:	
  1920                           ; 1 bytes @ 0x7
  1921                           
  1922     0077                     ??_strncpy:	
  1923                           ; 1 bytes @ 0x7
  1924                           
  1925     0077                     ??_init_display_controller:	
  1926                           ; 1 bytes @ 0x7
  1927                           
  1928     0077                     ??_get_time:	
  1929                           ; 1 bytes @ 0x7
  1930                           
  1931     0077                     ??_get_password:	
  1932                           ; 1 bytes @ 0x7
  1933                           
  1934     0077                     ??___wmul:	
  1935                           ; 1 bytes @ 0x7
  1936                           
  1937     0077                     ??___awdiv:	
  1938                           ; 1 bytes @ 0x7
  1939                           
  1940     0077                     ??___awmod:	
  1941                           ; 1 bytes @ 0x7
  1942                           
  1943     0077                     ??___lwdiv:	
  1944                           ; 1 bytes @ 0x7
  1945                           
  1946     0077                     ??___lwmod:	
  1947                           ; 1 bytes @ 0x7
  1948                           
  1949     0077                     init_ds1307@dummy:	
  1950                           ; 1 bytes @ 0x7
  1951                           
  1952     0077                     clear_log@reset_memory:	
  1953                           ; 1 bytes @ 0x7
  1954                           
  1955     0077                     ext_eeprom_24C02_str_write@addr:	
  1956                           ; 1 bytes @ 0x7
  1957                           
  1958     0077                     ___awmod@counter:	
  1959                           ; 1 bytes @ 0x7
  1960                           
  1961     0077                     ___lwmod@counter:	
  1962                           ; 1 bytes @ 0x7
  1963                           
  1964     0077                     strcmp@l:	
  1965                           ; 1 bytes @ 0x7
  1966                           
  1967     0077                     strcpy@d:	
  1968                           ; 1 bytes @ 0x7
  1969                           
  1970     0077                     ___wmul@product:	
  1971                           ; 1 bytes @ 0x7
  1972                           
  1973                           
  1974                           ; 2 bytes @ 0x7
  1975     0077                     	ds	1
  1976     0078                     ??_log_event:
  1977     0078                     log_event@add:	
  1978                           ; 1 bytes @ 0x8
  1979                           
  1980     0078                     ___lldiv@counter:	
  1981                           ; 1 bytes @ 0x8
  1982                           
  1983     0078                     ___awmod@sign:	
  1984                           ; 1 bytes @ 0x8
  1985                           
  1986     0078                     strcpy@dest:	
  1987                           ; 1 bytes @ 0x8
  1988                           
  1989     0078                     strncmp@l:	
  1990                           ; 1 bytes @ 0x8
  1991                           
  1992                           
  1993                           ; 1 bytes @ 0x8
  1994     0078                     	ds	1
  1995     0079                     ??_init_clcd:
  1996     0079                     ??_clcd_putch:	
  1997                           ; 1 bytes @ 0x9
  1998                           
  1999     0079                     ??_init_config:	
  2000                           ; 1 bytes @ 0x9
  2001                           
  2002     0079                     ??_display_time:	
  2003                           ; 1 bytes @ 0x9
  2004                           
  2005                           
  2006                           	psect	cstackBANK0
  2007     0020                     __pcstackBANK0:	
  2008                           ; 1 bytes @ 0x9
  2009                           
  2010     0020                     ?_clcd_print:
  2011     0020                     ??_download_log:	
  2012                           ; 1 bytes @ 0x0
  2013                           
  2014     0020                     ?___lwdiv:	
  2015                           ; 1 bytes @ 0x0
  2016                           
  2017     0020                     ?___lldiv:	
  2018                           ; 2 bytes @ 0x0
  2019                           
  2020     0020                     get_password@spassword:	
  2021                           ; 4 bytes @ 0x0
  2022                           
  2023     0020                     ___awdiv@counter:	
  2024                           ; 1 bytes @ 0x0
  2025                           
  2026     0020                     strncpy@d:	
  2027                           ; 1 bytes @ 0x0
  2028                           
  2029     0020                     clcd_print@str:	
  2030                           ; 1 bytes @ 0x0
  2031                           
  2032     0020                     ___lwdiv@divisor:	
  2033                           ; 2 bytes @ 0x0
  2034                           
  2035     0020                     ___lldiv@divisor:	
  2036                           ; 2 bytes @ 0x0
  2037                           
  2038                           
  2039                           ; 4 bytes @ 0x0
  2040     0020                     	ds	1
  2041     0021                     ___awdiv@sign:
  2042     0021                     strncpy@cp:	
  2043                           ; 1 bytes @ 0x1
  2044                           
  2045     0021                     get_password@i:	
  2046                           ; 1 bytes @ 0x1
  2047                           
  2048     0021                     download_log@rlog:	
  2049                           ; 2 bytes @ 0x1
  2050                           
  2051                           
  2052                           ; 11 bytes @ 0x1
  2053     0021                     	ds	1
  2054     0022                     clcd_print@addr:
  2055     0022                     ___awdiv@quotient:	
  2056                           ; 1 bytes @ 0x2
  2057                           
  2058     0022                     ___lwdiv@dividend:	
  2059                           ; 2 bytes @ 0x2
  2060                           
  2061                           
  2062                           ; 2 bytes @ 0x2
  2063     0022                     	ds	2
  2064     0024                     ?_log_car_event:
  2065     0024                     ___lwdiv@counter:	
  2066                           ; 1 bytes @ 0x4
  2067                           
  2068     0024                     log_car_event@event:	
  2069                           ; 1 bytes @ 0x4
  2070                           
  2071     0024                     ___lldiv@dividend:	
  2072                           ; 2 bytes @ 0x4
  2073                           
  2074                           
  2075                           ; 4 bytes @ 0x4
  2076     0024                     	ds	1
  2077     0025                     ___lwdiv@quotient:
  2078                           
  2079                           ; 2 bytes @ 0x5
  2080     0025                     	ds	1
  2081     0026                     log_car_event@speed:
  2082                           
  2083                           ; 1 bytes @ 0x6
  2084     0026                     	ds	1
  2085     0027                     ??_log_car_event:
  2086     0027                     ?_clcd_putch:	
  2087                           ; 1 bytes @ 0x7
  2088                           
  2089     0027                     clcd_putch@addr:	
  2090                           ; 1 bytes @ 0x7
  2091                           
  2092                           
  2093                           ; 1 bytes @ 0x7
  2094     0027                     	ds	1
  2095     0028                     ?_init_i2c:
  2096     0028                     ?_init_uart:	
  2097                           ; 1 bytes @ 0x8
  2098                           
  2099     0028                     clcd_putch@data:	
  2100                           ; 1 bytes @ 0x8
  2101                           
  2102     0028                     init_i2c@baud:	
  2103                           ; 1 bytes @ 0x8
  2104                           
  2105     0028                     init_uart@baud:	
  2106                           ; 4 bytes @ 0x8
  2107                           
  2108                           
  2109                           ; 4 bytes @ 0x8
  2110     0028                     	ds	1
  2111     0029                     ?_display_dash_board:
  2112     0029                     ?_login:	
  2113                           ; 1 bytes @ 0x9
  2114                           
  2115     0029                     ?_login_menu:	
  2116                           ; 1 bytes @ 0x9
  2117                           
  2118     0029                     ?_view_log:	
  2119                           ; 1 bytes @ 0x9
  2120                           
  2121     0029                     ?_change_time:	
  2122                           ; 1 bytes @ 0x9
  2123                           
  2124     0029                     ?_change_password:	
  2125                           ; 1 bytes @ 0x9
  2126                           
  2127     0029                     display_dash_board@speed:	
  2128                           ; 1 bytes @ 0x9
  2129                           
  2130     0029                     login@reset_flag:	
  2131                           ; 1 bytes @ 0x9
  2132                           
  2133     0029                     login_menu@reset_flag:	
  2134                           ; 1 bytes @ 0x9
  2135                           
  2136     0029                     view_log@reset_shift:	
  2137                           ; 1 bytes @ 0x9
  2138                           
  2139     0029                     change_time@reset_time:	
  2140                           ; 1 bytes @ 0x9
  2141                           
  2142     0029                     change_password@reset_pwd:	
  2143                           ; 1 bytes @ 0x9
  2144                           
  2145                           
  2146                           ; 1 bytes @ 0x9
  2147     0029                     	ds	1
  2148     002A                     ??_display_dash_board:
  2149     002A                     ??_login:	
  2150                           ; 1 bytes @ 0xA
  2151                           
  2152     002A                     ??_login_menu:	
  2153                           ; 1 bytes @ 0xA
  2154                           
  2155     002A                     ??_view_log:	
  2156                           ; 1 bytes @ 0xA
  2157                           
  2158     002A                     ??_change_time:	
  2159                           ; 1 bytes @ 0xA
  2160                           
  2161     002A                     ??_change_password:	
  2162                           ; 1 bytes @ 0xA
  2163                           
  2164                           
  2165                           ; 1 bytes @ 0xA
  2166     002A                     	ds	1
  2167     002B                     view_log@rlog:
  2168                           
  2169                           ; 11 bytes @ 0xB
  2170     002B                     	ds	1
  2171     002C                     ??_init_i2c:
  2172     002C                     ??_init_uart:	
  2173                           ; 1 bytes @ 0xC
  2174                           
  2175     002C                     display_dash_board@event:	
  2176                           ; 1 bytes @ 0xC
  2177                           
  2178     002C                     login_menu@key:	
  2179                           ; 1 bytes @ 0xC
  2180                           
  2181     002C                     download_log@add:	
  2182                           ; 1 bytes @ 0xC
  2183                           
  2184     002C                     change_password@key:	
  2185                           ; 1 bytes @ 0xC
  2186                           
  2187     002C                     login@spassword:	
  2188                           ; 1 bytes @ 0xC
  2189                           
  2190                           
  2191                           ; 5 bytes @ 0xC
  2192     002C                     	ds	1
  2193     002D                     change_time@key:
  2194     002D                     download_log@rpos:	
  2195                           ; 1 bytes @ 0xD
  2196                           
  2197                           
  2198                           ; 2 bytes @ 0xD
  2199     002D                     	ds	1
  2200     002E                     change_time@i:
  2201                           
  2202                           ; 4 bytes @ 0xE
  2203     002E                     	ds	1
  2204     002F                     download_log@next:
  2205                           
  2206                           ; 2 bytes @ 0xF
  2207     002F                     	ds	2
  2208     0031                     login@key:
  2209     0031                     download_log@i:	
  2210                           ; 1 bytes @ 0x11
  2211                           
  2212                           
  2213                           ; 2 bytes @ 0x11
  2214     0031                     	ds	1
  2215     0032                     change_time@dummy:
  2216                           
  2217                           ; 1 bytes @ 0x12
  2218     0032                     	ds	4
  2219     0036                     view_log@add:
  2220                           
  2221                           ; 1 bytes @ 0x16
  2222     0036                     	ds	1
  2223     0037                     view_log@key:
  2224                           
  2225                           ; 1 bytes @ 0x17
  2226     0037                     	ds	1
  2227     0038                     view_log@i_385:
  2228                           
  2229                           ; 4 bytes @ 0x18
  2230     0038                     	ds	4
  2231     003C                     view_log@rpos:
  2232                           
  2233                           ; 2 bytes @ 0x1C
  2234     003C                     	ds	2
  2235     003E                     view_log@i:
  2236                           
  2237                           ; 2 bytes @ 0x1E
  2238     003E                     	ds	2
  2239     0040                     ??_main:
  2240                           
  2241                           ; 1 bytes @ 0x20
  2242     0040                     	ds	2
  2243                           
  2244                           	psect	maintext
  2245     0042                     __pmaintext:	
  2246 ;;
  2247 ;;Main: autosize = 0, tempsize = 2, incstack = 0, save=0
  2248 ;;
  2249 ;; *************** function _main *****************
  2250 ;; Defined at:
  2251 ;;		line 26 in file "main.c"
  2252 ;; Parameters:    Size  Location     Type
  2253 ;;		None
  2254 ;; Auto vars:     Size  Location     Type
  2255 ;;  i               2    0[BANK1 ] int 
  2256 ;;  event           3    3[BANK1 ] unsigned char [3]
  2257 ;;  wait_time       2    7[BANK1 ] int 
  2258 ;;  key             1   12[BANK1 ] unsigned char 
  2259 ;;  speed           1   11[BANK1 ] unsigned char 
  2260 ;;  reset_flag      1   10[BANK1 ] unsigned char 
  2261 ;;  control_flag    1    9[BANK1 ] unsigned char 
  2262 ;;  gr              1    6[BANK1 ] unsigned char 
  2263 ;;  menu_pos        1    2[BANK1 ] unsigned char 
  2264 ;;  key1            1    0        unsigned char 
  2265 ;; Return value:  Size  Location     Type
  2266 ;;                  1    wreg      void 
  2267 ;; Registers used:
  2268 ;;		wreg, fsr0l, fsr0h, status,2, status,0, btemp+1, pclath, cstack
  2269 ;; Tracked objects:
  2270 ;;		On entry : B00/0
  2271 ;;		On exit  : 0/0
  2272 ;;		Unchanged: 0/0
  2273 ;; Data sizes:     COMMON   BANK0   BANK1   BANK3   BANK2
  2274 ;;      Params:         0       0       0       0       0
  2275 ;;      Locals:         0       0      13       0       0
  2276 ;;      Temps:          0       2       0       0       0
  2277 ;;      Totals:         0       2      13       0       0
  2278 ;;Total ram usage:       15 bytes
  2279 ;; Hardware stack levels required when called: 7
  2280 ;; This function calls:
  2281 ;;		___lwdiv
  2282 ;;		_change_password
  2283 ;;		_change_time
  2284 ;;		_clcd_print
  2285 ;;		_clcd_putch
  2286 ;;		_clcd_write
  2287 ;;		_clear_log
  2288 ;;		_display_dash_board
  2289 ;;		_download_log
  2290 ;;		_ext_eeprom_24C02_byte_write
  2291 ;;		_init_config
  2292 ;;		_log_car_event
  2293 ;;		_login
  2294 ;;		_login_menu
  2295 ;;		_read_adc
  2296 ;;		_read_digital_keypad
  2297 ;;		_strcpy
  2298 ;;		_view_log
  2299 ;; This function is called by:
  2300 ;;		Startup code after reset
  2301 ;; This function uses a non-reentrant model
  2302 ;;
  2303                           
  2304     0042                     _main:	
  2305                           ;psect for function _main
  2306                           
  2307     0042                     l5275:	
  2308                           ;incstack = 0
  2309                           ; Regs used in _main: [wreg-fsr0h+status,2+status,0+btemp+1+pclath+cstack]
  2310                           
  2311                           
  2312                           ;main.c: 27: 
  2313     0042  1683               	bsf	3,5	;RP0=1, select bank1
  2314     0043  1303               	bcf	3,6	;RP1=0, select bank1
  2315     0044  085A               	movf	main@F1251^(0+128),w
  2316     0045  00E0               	movwf	main@event^(0+128)
  2317     0046  085B               	movf	(main@F1251+1)^(0+128),w
  2318     0047  00E1               	movwf	(main@event+1)^(0+128)
  2319     0048  085C               	movf	(main@F1251+2)^(0+128),w
  2320     0049  00E2               	movwf	(main@event+2)^(0+128)
  2321     004A                     l5277:
  2322     004A                     l5279:
  2323                           
  2324                           ;main.c: 30:     ext_eeprom_24C02_byte_write(0x01, '0');
  2325     004A  01E6               	clrf	main@control_flag^(0+128)
  2326     004B  0AE6               	incf	main@control_flag^(0+128),f
  2327     004C                     l5281:
  2328                           
  2329                           ;main.c: 31:     ext_eeprom_24C02_byte_write(0x02, '1');
  2330     004C  01E3               	clrf	main@gr^(0+128)
  2331     004D                     l5283:
  2332                           
  2333                           ;main.c: 32:     ext_eeprom_24C02_byte_write(0x03, '0');;main.c: 33:     ext_eeprom_24C0
      +                          2_byte_write(0x04,'\0');
  2334     004D  01DF               	clrf	main@menu_pos^(0+128)
  2335     004E                     l5285:
  2336                           
  2337                           ;main.c: 34: 
  2338     004E  01E4               	clrf	main@wait_time^(0+128)
  2339     004F  01E5               	clrf	(main@wait_time+1)^(0+128)
  2340     0050                     l5287:
  2341                           
  2342                           ;main.c: 35:     while (1) {
  2343     0050  160A  118A  236E  120A  118A  	fcall	_init_config
  2344     0055                     l5289:
  2345                           
  2346                           ;main.c: 36: 
  2347     0055  30E0               	movlw	(low (main@event| 0))& (0+255)
  2348     0056  1283               	bcf	3,5	;RP0=0, select bank0
  2349     0057  1303               	bcf	3,6	;RP1=0, select bank0
  2350     0058  00A4               	movwf	log_car_event@event
  2351     0059  3000               	movlw	0
  2352     005A  00A5               	movwf	log_car_event@event+1
  2353     005B  01A6               	clrf	log_car_event@speed
  2354     005C  160A  118A  2521  120A  118A  	fcall	_log_car_event
  2355     0061                     l5291:
  2356                           
  2357                           ;main.c: 39:         {
  2358     0061  3031               	movlw	49
  2359     0062  00F4               	movwf	ext_eeprom_24C02_byte_write@data
  2360     0063  3000               	movlw	0
  2361     0064  160A  118A  20B8  120A  118A  	fcall	_ext_eeprom_24C02_byte_write
  2362     0069                     l5293:
  2363                           
  2364                           ;main.c: 40:             speed = 99;
  2365     0069  3030               	movlw	48
  2366     006A  00F4               	movwf	ext_eeprom_24C02_byte_write@data
  2367     006B  3001               	movlw	1
  2368     006C  160A  118A  20B8  120A  118A  	fcall	_ext_eeprom_24C02_byte_write
  2369     0071                     l5295:
  2370                           
  2371                           ;main.c: 41:         }
  2372     0071  3031               	movlw	49
  2373     0072  00F4               	movwf	ext_eeprom_24C02_byte_write@data
  2374     0073  3002               	movlw	2
  2375     0074  160A  118A  20B8  120A  118A  	fcall	_ext_eeprom_24C02_byte_write
  2376     0079                     l5297:
  2377                           
  2378                           ;main.c: 42: 
  2379     0079  3030               	movlw	48
  2380     007A  00F4               	movwf	ext_eeprom_24C02_byte_write@data
  2381     007B  3003               	movlw	3
  2382     007C  160A  118A  20B8  120A  118A  	fcall	_ext_eeprom_24C02_byte_write
  2383     0081                     l5299:
  2384                           
  2385                           ;main.c: 43:         key = read_digital_keypad();
  2386     0081  01F4               	clrf	ext_eeprom_24C02_byte_write@data
  2387     0082  3004               	movlw	4
  2388     0083  160A  118A  20B8  120A  118A  	fcall	_ext_eeprom_24C02_byte_write
  2389     0088                     l5301:
  2390                           
  2391                           ;main.c: 47:         if(key == 0x3E)
  2392     0088  300A               	movlw	10
  2393     0089  1283               	bcf	3,5	;RP0=0, select bank0
  2394     008A  1303               	bcf	3,6	;RP1=0, select bank0
  2395     008B  00A0               	movwf	___lwdiv@divisor
  2396     008C  3000               	movlw	0
  2397     008D  00A1               	movwf	___lwdiv@divisor+1
  2398     008E  160A  118A  2020  120A  118A  	fcall	_read_adc
  2399     0093  0874               	movf	?_read_adc+1,w
  2400     0094  1283               	bcf	3,5	;RP0=0, select bank0
  2401     0095  1303               	bcf	3,6	;RP1=0, select bank0
  2402     0096  00A3               	movwf	___lwdiv@dividend+1
  2403     0097  0873               	movf	?_read_adc,w
  2404     0098  00A2               	movwf	___lwdiv@dividend
  2405     0099  160A  118A  23E5  120A  118A  	fcall	___lwdiv
  2406     009E  1283               	bcf	3,5	;RP0=0, select bank0
  2407     009F  1303               	bcf	3,6	;RP1=0, select bank0
  2408     00A0  0820               	movf	?___lwdiv,w
  2409     00A1  1683               	bsf	3,5	;RP0=1, select bank1
  2410     00A2  1303               	bcf	3,6	;RP1=0, select bank1
  2411     00A3  00E8               	movwf	main@speed^(0+128)
  2412     00A4                     l5303:
  2413                           
  2414                           ;main.c: 48:         {
  2415     00A4  3064               	movlw	100
  2416     00A5  0268               	subwf	main@speed^(0+128),w
  2417     00A6  1C03               	skipc
  2418     00A7  28A9               	goto	u4871
  2419     00A8  28AA               	goto	u4870
  2420     00A9                     u4871:
  2421     00A9  28AC               	goto	l5307
  2422     00AA                     u4870:
  2423     00AA                     l5305:
  2424                           
  2425                           ;main.c: 49:             strcpy(event,"C ");;main.c: 50:             log_car_event(event
      +                          ,speed);
  2426     00AA  3063               	movlw	99
  2427     00AB  00E8               	movwf	main@speed^(0+128)
  2428     00AC                     l5307:
  2429                           
  2430                           ;main.c: 53:         else if(key == 0x3D && gr < 6)
  2431     00AC  120A  118A  2730  120A  118A  	fcall	_read_digital_keypad
  2432     00B1  1683               	bsf	3,5	;RP0=1, select bank1
  2433     00B2  1303               	bcf	3,6	;RP1=0, select bank1
  2434     00B3  00E9               	movwf	main@key^(0+128)
  2435     00B4                     l5309:
  2436                           
  2437                           ;main.c: 55:                 strcpy(event,gear[gr]);
  2438     00B4  30D0               	movlw	208
  2439     00B5  00DD               	movwf	main@i^(0+128)
  2440     00B6  3007               	movlw	7
  2441     00B7  00DE               	movwf	(main@i^(0+128)+1)
  2442     00B8                     l5311:
  2443     00B8  30FF               	movlw	255
  2444     00B9  07DD               	addwf	main@i^(0+128),f
  2445     00BA  1803               	skipnc
  2446     00BB  0ADE               	incf	(main@i+1)^(0+128),f
  2447     00BC  30FF               	movlw	255
  2448     00BD  07DE               	addwf	(main@i+1)^(0+128),f
  2449     00BE  0A5D               	incf	main@i^(0+128),w
  2450     00BF  1D03               	skipz
  2451     00C0  28C5               	goto	u4881
  2452     00C1  0A5E               	incf	(main@i+1)^(0+128),w
  2453     00C2  1D03               	btfss	3,2
  2454     00C3  28C5               	goto	u4881
  2455     00C4  28C6               	goto	u4880
  2456     00C5                     u4881:
  2457     00C5  28B8               	goto	l5311
  2458     00C6                     u4880:
  2459     00C6                     l5313:
  2460                           
  2461                           ;main.c: 57:                 gr++;
  2462     00C6  303E               	movlw	62
  2463     00C7  0669               	xorwf	main@key^(0+128),w
  2464     00C8  1D03               	btfss	3,2
  2465     00C9  28CB               	goto	u4891
  2466     00CA  28CC               	goto	u4890
  2467     00CB                     u4891:
  2468     00CB  28E8               	goto	l5317
  2469     00CC                     u4890:
  2470     00CC                     l5315:
  2471                           
  2472                           ;main.c: 58:         };main.c: 59: 
  2473     00CC  3070               	movlw	low (STR_7| (0+32768))
  2474     00CD  00F3               	movwf	strcpy@src
  2475     00CE  3089               	movlw	high (STR_7| (0+32768))
  2476     00CF  00F4               	movwf	strcpy@src+1
  2477     00D0  30E0               	movlw	(low (main@event| 0))& (0+255)
  2478     00D1  160A  118A  2115  120A  118A  	fcall	_strcpy
  2479                           
  2480                           ;main.c: 60:        else if(key == 0x3B && gr > 0)
  2481     00D6  30E0               	movlw	(low (main@event| 0))& (0+255)
  2482     00D7  1283               	bcf	3,5	;RP0=0, select bank0
  2483     00D8  1303               	bcf	3,6	;RP1=0, select bank0
  2484     00D9  00A4               	movwf	log_car_event@event
  2485     00DA  3000               	movlw	0
  2486     00DB  00A5               	movwf	log_car_event@event+1
  2487     00DC  1683               	bsf	3,5	;RP0=1, select bank1
  2488     00DD  1303               	bcf	3,6	;RP1=0, select bank1
  2489     00DE  0868               	movf	main@speed^(0+128),w
  2490     00DF  1283               	bcf	3,5	;RP0=0, select bank0
  2491     00E0  1303               	bcf	3,6	;RP1=0, select bank0
  2492     00E1  00A6               	movwf	log_car_event@speed
  2493     00E2  160A  118A  2521  120A  118A  	fcall	_log_car_event
  2494                           
  2495                           ;main.c: 61:        {
  2496     00E7  2C0D               	goto	l5501
  2497     00E8                     l5317:
  2498     00E8  303D               	movlw	61
  2499     00E9  0669               	xorwf	main@key^(0+128),w
  2500     00EA  1D03               	btfss	3,2
  2501     00EB  28ED               	goto	u4901
  2502     00EC  28EE               	goto	u4900
  2503     00ED                     u4901:
  2504     00ED  2920               	goto	l5325
  2505     00EE                     u4900:
  2506     00EE                     l5319:
  2507     00EE  3006               	movlw	6
  2508     00EF  0263               	subwf	main@gr^(0+128),w
  2509     00F0  1803               	skipnc
  2510     00F1  28F3               	goto	u4911
  2511     00F2  28F4               	goto	u4910
  2512     00F3                     u4911:
  2513     00F3  2920               	goto	l5325
  2514     00F4                     u4910:
  2515     00F4                     l5321:
  2516                           
  2517                           ;main.c: 64:            log_car_event(event,speed);;main.c: 65:        }
  2518     00F4  0863               	movf	main@gr^(0+128),w
  2519     00F5  1283               	bcf	3,5	;RP0=0, select bank0
  2520     00F6  1303               	bcf	3,6	;RP1=0, select bank0
  2521     00F7  00C0               	movwf	??_main
  2522     00F8  0740               	addwf	??_main,w
  2523     00F9  3EC4               	addlw	(low (_gear| 0))& (0+255)
  2524     00FA  0084               	movwf	4
  2525     00FB  1383               	bcf	3,7	;select IRP bank1
  2526     00FC  0800               	movf	0,w
  2527     00FD  00F3               	movwf	strcpy@src
  2528     00FE  0A84               	incf	4,f
  2529     00FF  0800               	movf	0,w
  2530     0100  0384               	decf	4,f
  2531     0101  00F4               	movwf	strcpy@src+1
  2532     0102  30E0               	movlw	(low (main@event| 0))& (0+255)
  2533     0103  160A  118A  2115  120A  118A  	fcall	_strcpy
  2534                           
  2535                           ;main.c: 66: 
  2536     0108  30E0               	movlw	(low (main@event| 0))& (0+255)
  2537     0109  1283               	bcf	3,5	;RP0=0, select bank0
  2538     010A  1303               	bcf	3,6	;RP1=0, select bank0
  2539     010B  00A4               	movwf	log_car_event@event
  2540     010C  3000               	movlw	0
  2541     010D  00A5               	movwf	log_car_event@event+1
  2542     010E  1683               	bsf	3,5	;RP0=1, select bank1
  2543     010F  1303               	bcf	3,6	;RP1=0, select bank1
  2544     0110  0868               	movf	main@speed^(0+128),w
  2545     0111  1283               	bcf	3,5	;RP0=0, select bank0
  2546     0112  1303               	bcf	3,6	;RP1=0, select bank0
  2547     0113  00A6               	movwf	log_car_event@speed
  2548     0114  160A  118A  2521  120A  118A  	fcall	_log_car_event
  2549     0119                     l5323:
  2550                           
  2551                           ;main.c: 67:         else if((key == 0x37 || key == 0x2F) && (control_flag == 0x01))
  2552     0119  3001               	movlw	1
  2553     011A  00FF               	movwf	btemp+1
  2554     011B  087F               	movf	btemp+1,w
  2555     011C  1683               	bsf	3,5	;RP0=1, select bank1
  2556     011D  1303               	bcf	3,6	;RP1=0, select bank1
  2557     011E  07E3               	addwf	main@gr^(0+128),f
  2558                           
  2559                           ;main.c: 68:        {
  2560     011F  2C0D               	goto	l5501
  2561     0120                     l5325:
  2562     0120  303B               	movlw	59
  2563     0121  0669               	xorwf	main@key^(0+128),w
  2564     0122  1D03               	btfss	3,2
  2565     0123  2925               	goto	u4921
  2566     0124  2926               	goto	u4920
  2567     0125                     u4921:
  2568     0125  2953               	goto	l5335
  2569     0126                     u4920:
  2570     0126                     l5327:
  2571     0126  0863               	movf	main@gr^(0+128),w
  2572     0127  1903               	btfsc	3,2
  2573     0128  292A               	goto	u4931
  2574     0129  292B               	goto	u4930
  2575     012A                     u4931:
  2576     012A  2953               	goto	l5335
  2577     012B                     u4930:
  2578     012B                     l5329:
  2579                           
  2580                           ;main.c: 71:            clcd_print(" ENTER PASSWORD ",(0x80 + 0));;main.c: 72:          
      +                            clcd_putch(' ',(0xC0 + 6));
  2581     012B  3001               	movlw	1
  2582     012C  02E3               	subwf	main@gr^(0+128),f
  2583     012D                     l5331:
  2584                           
  2585                           ;main.c: 73:            clcd_write(0x0F, 0);
  2586     012D  0863               	movf	main@gr^(0+128),w
  2587     012E  1283               	bcf	3,5	;RP0=0, select bank0
  2588     012F  1303               	bcf	3,6	;RP1=0, select bank0
  2589     0130  00C0               	movwf	??_main
  2590     0131  0740               	addwf	??_main,w
  2591     0132  3EC4               	addlw	(low (_gear| 0))& (0+255)
  2592     0133  0084               	movwf	4
  2593     0134  1383               	bcf	3,7	;select IRP bank1
  2594     0135  0800               	movf	0,w
  2595     0136  00F3               	movwf	strcpy@src
  2596     0137  0A84               	incf	4,f
  2597     0138  0800               	movf	0,w
  2598     0139  0384               	decf	4,f
  2599     013A  00F4               	movwf	strcpy@src+1
  2600     013B  30E0               	movlw	(low (main@event| 0))& (0+255)
  2601     013C  160A  118A  2115  120A  118A  	fcall	_strcpy
  2602     0141                     l5333:
  2603                           
  2604                           ;main.c: 74:            _delay((unsigned long)((100)*(20000000/4000000.0)));
  2605     0141  30E0               	movlw	(low (main@event| 0))& (0+255)
  2606     0142  1283               	bcf	3,5	;RP0=0, select bank0
  2607     0143  1303               	bcf	3,6	;RP1=0, select bank0
  2608     0144  00A4               	movwf	log_car_event@event
  2609     0145  3000               	movlw	0
  2610     0146  00A5               	movwf	log_car_event@event+1
  2611     0147  1683               	bsf	3,5	;RP0=1, select bank1
  2612     0148  1303               	bcf	3,6	;RP1=0, select bank1
  2613     0149  0868               	movf	main@speed^(0+128),w
  2614     014A  1283               	bcf	3,5	;RP0=0, select bank0
  2615     014B  1303               	bcf	3,6	;RP1=0, select bank0
  2616     014C  00A6               	movwf	log_car_event@speed
  2617     014D  160A  118A  2521  120A  118A  	fcall	_log_car_event
  2618                           
  2619                           ;main.c: 75:            control_flag = 0x02;
  2620     0152  2C0D               	goto	l5501
  2621     0153                     l5335:
  2622     0153  3037               	movlw	55
  2623     0154  0669               	xorwf	main@key^(0+128),w
  2624     0155  1903               	btfsc	3,2
  2625     0156  2958               	goto	u4941
  2626     0157  2959               	goto	u4940
  2627     0158                     u4941:
  2628     0158  295F               	goto	l5339
  2629     0159                     u4940:
  2630     0159                     l5337:
  2631     0159  302F               	movlw	47
  2632     015A  0669               	xorwf	main@key^(0+128),w
  2633     015B  1D03               	btfss	3,2
  2634     015C  295E               	goto	u4951
  2635     015D  295F               	goto	u4950
  2636     015E                     u4951:
  2637     015E  29A4               	goto	l5359
  2638     015F                     u4950:
  2639     015F                     l5339:
  2640     015F  0366               	decf	main@control_flag^(0+128),w
  2641     0160  1D03               	btfss	3,2
  2642     0161  2963               	goto	u4961
  2643     0162  2964               	goto	u4960
  2644     0163                     u4961:
  2645     0163  29A4               	goto	l5359
  2646     0164                     u4960:
  2647     0164                     l5341:
  2648                           
  2649                           ;main.c: 78:        };main.c: 79: 
  2650     0164  01F3               	clrf	clcd_write@mode
  2651     0165  3001               	movlw	1
  2652     0166  160A  118A  22C6  120A  118A  	fcall	_clcd_write
  2653     016B                     l5343:
  2654                           
  2655                           ;main.c: 80:         else if ( key == 0x11 && control_flag == 0x04 )
  2656     016B  3004               	movlw	4
  2657     016C  1283               	bcf	3,5	;RP0=0, select bank0
  2658     016D  1303               	bcf	3,6	;RP1=0, select bank0
  2659     016E  00C1               	movwf	??_main+1
  2660     016F  303D               	movlw	61
  2661     0170  00C0               	movwf	??_main
  2662     0171                     u5137:
  2663     0171  0BC0               	decfsz	??_main,f
  2664     0172  2971               	goto	u5137
  2665     0173  0BC1               	decfsz	??_main+1,f
  2666     0174  2971               	goto	u5137
  2667     0175                     l5345:
  2668                           
  2669                           ;main.c: 81:   {
  2670     0175  309F               	movlw	low (STR_8| (0+32768))
  2671     0176  1283               	bcf	3,5	;RP0=0, select bank0
  2672     0177  1303               	bcf	3,6	;RP1=0, select bank0
  2673     0178  00A0               	movwf	clcd_print@str
  2674     0179  3088               	movlw	high (STR_8| (0+32768))
  2675     017A  00A1               	movwf	clcd_print@str+1
  2676     017B  3080               	movlw	128
  2677     017C  00A2               	movwf	clcd_print@addr
  2678     017D  160A  118A  225F  120A  118A  	fcall	_clcd_print
  2679     0182                     l5347:
  2680                           
  2681                           ;main.c: 82: 
  2682     0182  30C6               	movlw	198
  2683     0183  1283               	bcf	3,5	;RP0=0, select bank0
  2684     0184  1303               	bcf	3,6	;RP1=0, select bank0
  2685     0185  00A7               	movwf	clcd_putch@addr
  2686     0186  3020               	movlw	32
  2687     0187  160A  118A  2058  120A  118A  	fcall	_clcd_putch
  2688     018C                     l5349:
  2689                           
  2690                           ;main.c: 83: 
  2691     018C  01F3               	clrf	clcd_write@mode
  2692     018D  300F               	movlw	15
  2693     018E  160A  118A  22C6  120A  118A  	fcall	_clcd_write
  2694     0193                     l5351:
  2695                           
  2696                           ;main.c: 84:    switch ( menu_pos )
  2697     0193  30A5               	movlw	165
  2698     0194  1283               	bcf	3,5	;RP0=0, select bank0
  2699     0195  1303               	bcf	3,6	;RP1=0, select bank0
  2700     0196  00C0               	movwf	??_main
  2701     0197                     u5147:
  2702     0197  0BC0               	decfsz	??_main,f
  2703     0198  2997               	goto	u5147
  2704     0199  299A               	nop2
  2705     019A                     l5353:
  2706                           
  2707                           ;main.c: 85:    {
  2708     019A  3002               	movlw	2
  2709     019B  1683               	bsf	3,5	;RP0=1, select bank1
  2710     019C  1303               	bcf	3,6	;RP1=0, select bank1
  2711     019D  00E6               	movwf	main@control_flag^(0+128)
  2712     019E                     l5355:
  2713                           
  2714                           ;main.c: 86:     case 0:
  2715     019E  01E7               	clrf	main@reset_flag^(0+128)
  2716     019F  0AE7               	incf	main@reset_flag^(0+128),f
  2717     01A0                     l5357:
  2718                           
  2719                           ;main.c: 87:      clcd_write(0x01,0);
  2720     01A0  1283               	bcf	3,5	;RP0=0, select bank0
  2721     01A1  1303               	bcf	3,6	;RP1=0, select bank0
  2722     01A2  1512               	bsf	18,2	;volatile
  2723                           
  2724                           ;main.c: 88:      clcd_print("Logs",(0x80 + 0));
  2725     01A3  2C0D               	goto	l5501
  2726     01A4                     l5359:
  2727     01A4  3011               	movlw	17
  2728     01A5  0669               	xorwf	main@key^(0+128),w
  2729     01A6  1D03               	btfss	3,2
  2730     01A7  29A9               	goto	u4971
  2731     01A8  29AA               	goto	u4970
  2732     01A9                     u4971:
  2733     01A9  2A4F               	goto	l5409
  2734     01AA                     u4970:
  2735     01AA                     l5361:
  2736     01AA  3004               	movlw	4
  2737     01AB  0666               	xorwf	main@control_flag^(0+128),w
  2738     01AC  1D03               	btfss	3,2
  2739     01AD  29AF               	goto	u4981
  2740     01AE  29B0               	goto	u4980
  2741     01AF                     u4981:
  2742     01AF  2A4F               	goto	l5409
  2743     01B0                     u4980:
  2744     01B0  2A34               	goto	l5407
  2745     01B1                     l5365:
  2746                           
  2747                           ;main.c: 97:     case 2 :
  2748     01B1  01F3               	clrf	clcd_write@mode
  2749     01B2  3001               	movlw	1
  2750     01B3  160A  118A  22C6  120A  118A  	fcall	_clcd_write
  2751     01B8                     l5367:
  2752                           
  2753                           ;main.c: 98:      log_car_event("DL",speed);
  2754     01B8  306B               	movlw	low (STR_9| (0+32768))
  2755     01B9  1283               	bcf	3,5	;RP0=0, select bank0
  2756     01BA  1303               	bcf	3,6	;RP1=0, select bank0
  2757     01BB  00A0               	movwf	clcd_print@str
  2758     01BC  3089               	movlw	high (STR_9| (0+32768))
  2759     01BD  00A1               	movwf	clcd_print@str+1
  2760     01BE  3080               	movlw	128
  2761     01BF  00A2               	movwf	clcd_print@addr
  2762     01C0  160A  118A  225F  120A  118A  	fcall	_clcd_print
  2763     01C5                     l5369:
  2764                           
  2765                           ;main.c: 99:      download_log();
  2766     01C5  3008               	movlw	8
  2767     01C6  1683               	bsf	3,5	;RP0=1, select bank1
  2768     01C7  1303               	bcf	3,6	;RP1=0, select bank1
  2769     01C8  00E6               	movwf	main@control_flag^(0+128)
  2770     01C9                     l5371:
  2771                           
  2772                           ;main.c: 100:                     clcd_write(0x01,0);
  2773     01C9  3008               	movlw	8
  2774     01CA  00E7               	movwf	main@reset_flag^(0+128)
  2775                           
  2776                           ;main.c: 101:      control_flag = 0x04;
  2777     01CB  2C0D               	goto	l5501
  2778     01CC                     l5373:
  2779                           
  2780                           ;main.c: 103:      break;
  2781     01CC  01F3               	clrf	clcd_write@mode
  2782     01CD  3001               	movlw	1
  2783     01CE  160A  118A  22C6  120A  118A  	fcall	_clcd_write
  2784     01D3                     l5375:
  2785                           
  2786                           ;main.c: 104:     case 3 :
  2787     01D3  3010               	movlw	16
  2788     01D4  1683               	bsf	3,5	;RP0=1, select bank1
  2789     01D5  1303               	bcf	3,6	;RP1=0, select bank1
  2790     01D6  00E6               	movwf	main@control_flag^(0+128)
  2791     01D7                     l5377:
  2792                           
  2793                           ;main.c: 105:      log_car_event("CT",speed);
  2794     01D7  3004               	movlw	4
  2795     01D8  00E7               	movwf	main@reset_flag^(0+128)
  2796                           
  2797                           ;main.c: 106:      clcd_write(0x01,0);
  2798     01D9  2C0D               	goto	l5501
  2799     01DA                     l5379:
  2800                           
  2801                           ;main.c: 108:      reset_flag = 0x10;
  2802     01DA  3082               	movlw	low (STR_10| (0+32768))
  2803     01DB  00A4               	movwf	log_car_event@event
  2804     01DC  3089               	movlw	high (STR_10| (0+32768))
  2805     01DD  00A5               	movwf	log_car_event@event+1
  2806     01DE  1683               	bsf	3,5	;RP0=1, select bank1
  2807     01DF  1303               	bcf	3,6	;RP1=0, select bank1
  2808     01E0  0868               	movf	main@speed^(0+128),w
  2809     01E1  1283               	bcf	3,5	;RP0=0, select bank0
  2810     01E2  1303               	bcf	3,6	;RP1=0, select bank0
  2811     01E3  00A6               	movwf	log_car_event@speed
  2812     01E4  160A  118A  2521  120A  118A  	fcall	_log_car_event
  2813                           
  2814                           ;main.c: 109:      break;
  2815     01E9  120A  158A  225B  120A  118A  	fcall	_download_log
  2816     01EE                     l5381:
  2817                           
  2818                           ;main.c: 110:     case 4:
  2819     01EE  01F3               	clrf	clcd_write@mode
  2820     01EF  3001               	movlw	1
  2821     01F0  160A  118A  22C6  120A  118A  	fcall	_clcd_write
  2822     01F5                     l5383:
  2823                           
  2824                           ;main.c: 111:      log_car_event("CP",speed);
  2825     01F5  3004               	movlw	4
  2826     01F6  1683               	bsf	3,5	;RP0=1, select bank1
  2827     01F7  1303               	bcf	3,6	;RP1=0, select bank1
  2828     01F8  00E6               	movwf	main@control_flag^(0+128)
  2829     01F9                     l5385:
  2830                           
  2831                           ;main.c: 112:      clcd_write(0x01,0);
  2832     01F9  3005               	movlw	5
  2833     01FA  00E7               	movwf	main@reset_flag^(0+128)
  2834                           
  2835                           ;main.c: 113:      control_flag = 0x80;
  2836     01FB  2C0D               	goto	l5501
  2837     01FC                     l5387:
  2838                           
  2839                           ;main.c: 115:      0x0F;
  2840     01FC  308E               	movlw	low (STR_11| (0+32768))
  2841     01FD  00A4               	movwf	log_car_event@event
  2842     01FE  3089               	movlw	high (STR_11| (0+32768))
  2843     01FF  00A5               	movwf	log_car_event@event+1
  2844     0200  1683               	bsf	3,5	;RP0=1, select bank1
  2845     0201  1303               	bcf	3,6	;RP1=0, select bank1
  2846     0202  0868               	movf	main@speed^(0+128),w
  2847     0203  1283               	bcf	3,5	;RP0=0, select bank0
  2848     0204  1303               	bcf	3,6	;RP1=0, select bank0
  2849     0205  00A6               	movwf	log_car_event@speed
  2850     0206  160A  118A  2521  120A  118A  	fcall	_log_car_event
  2851     020B                     l5389:
  2852                           
  2853                           ;main.c: 116:      TMR2ON = 1;
  2854     020B  01F3               	clrf	clcd_write@mode
  2855     020C  3001               	movlw	1
  2856     020D  160A  118A  22C6  120A  118A  	fcall	_clcd_write
  2857     0212                     l5391:
  2858                           
  2859                           ;main.c: 117:      break;
  2860     0212  3040               	movlw	64
  2861     0213  1683               	bsf	3,5	;RP0=1, select bank1
  2862     0214  1303               	bcf	3,6	;RP1=0, select bank1
  2863     0215  00E6               	movwf	main@control_flag^(0+128)
  2864     0216                     l5393:
  2865                           
  2866                           ;main.c: 118: 
  2867     0216  3010               	movlw	16
  2868     0217  00E7               	movwf	main@reset_flag^(0+128)
  2869                           
  2870                           ;main.c: 119:    }
  2871     0218  2C0D               	goto	l5501
  2872     0219                     l5395:
  2873                           
  2874                           ;main.c: 121:   }
  2875     0219  3088               	movlw	low (STR_12| (0+32768))
  2876     021A  00A4               	movwf	log_car_event@event
  2877     021B  3089               	movlw	high (STR_12| (0+32768))
  2878     021C  00A5               	movwf	log_car_event@event+1
  2879     021D  1683               	bsf	3,5	;RP0=1, select bank1
  2880     021E  1303               	bcf	3,6	;RP1=0, select bank1
  2881     021F  0868               	movf	main@speed^(0+128),w
  2882     0220  1283               	bcf	3,5	;RP0=0, select bank0
  2883     0221  1303               	bcf	3,6	;RP1=0, select bank0
  2884     0222  00A6               	movwf	log_car_event@speed
  2885     0223  160A  118A  2521  120A  118A  	fcall	_log_car_event
  2886     0228                     l5397:
  2887                           
  2888                           ;main.c: 122:         else if ( key == 0x22 && (control_flag == 0x04 ||control_flag == 0
      +                          x08))
  2889     0228  01F3               	clrf	clcd_write@mode
  2890     0229  3001               	movlw	1
  2891     022A  160A  118A  22C6  120A  118A  	fcall	_clcd_write
  2892     022F                     l5399:
  2893                           
  2894                           ;main.c: 123:             {
  2895     022F  3080               	movlw	128
  2896     0230  1683               	bsf	3,5	;RP0=1, select bank1
  2897     0231  1303               	bcf	3,6	;RP1=0, select bank1
  2898     0232  00E6               	movwf	main@control_flag^(0+128)
  2899     0233  299E               	goto	l5355
  2900     0234                     l5407:
  2901     0234  085F               	movf	main@menu_pos^(0+128),w
  2902     0235  1283               	bcf	3,5	;RP0=0, select bank0
  2903     0236  1303               	bcf	3,6	;RP1=0, select bank0
  2904     0237  00C0               	movwf	??_main
  2905     0238  01C1               	clrf	??_main+1
  2906                           
  2907                           ; Switch on 2 bytes has been partitioned into a top level switch of size 1, and 1 sub-sw
      +                          itches
  2908                           ; Switch size 1, requested type "simple"
  2909                           ; Number of cases is 1, Range of values is 0 to 0
  2910                           ; switch strategies available:
  2911                           ; Name         Instructions Cycles
  2912                           ; simple_byte            4     3 (average)
  2913                           ; direct_byte           11     8 (fixed)
  2914                           ; jumptable            260     6 (fixed)
  2915                           ;	Chosen strategy is simple_byte
  2916     0239  0841               	movf	??_main+1,w
  2917     023A  3A00               	xorlw	0	; case 0
  2918     023B  1903               	skipnz
  2919     023C  2A3E               	goto	l5729
  2920     023D  2C0D               	goto	l5501
  2921     023E                     l5729:
  2922                           
  2923                           ; Switch size 1, requested type "simple"
  2924                           ; Number of cases is 5, Range of values is 0 to 4
  2925                           ; switch strategies available:
  2926                           ; Name         Instructions Cycles
  2927                           ; simple_byte           16     9 (average)
  2928                           ; direct_byte           23     8 (fixed)
  2929                           ; jumptable            260     6 (fixed)
  2930                           ;	Chosen strategy is simple_byte
  2931     023E  0840               	movf	??_main,w
  2932     023F  3A00               	xorlw	0	; case 0
  2933     0240  1903               	skipnz
  2934     0241  29B1               	goto	l5365
  2935     0242  3A01               	xorlw	1	; case 1
  2936     0243  1903               	skipnz
  2937     0244  29CC               	goto	l5373
  2938     0245  3A03               	xorlw	3	; case 2
  2939     0246  1903               	skipnz
  2940     0247  29DA               	goto	l5379
  2941     0248  3A01               	xorlw	1	; case 3
  2942     0249  1903               	skipnz
  2943     024A  29FC               	goto	l5387
  2944     024B  3A07               	xorlw	7	; case 4
  2945     024C  1903               	skipnz
  2946     024D  2A19               	goto	l5395
  2947     024E  2C0D               	goto	l5501
  2948     024F                     l5409:
  2949     024F  3022               	movlw	34
  2950     0250  0669               	xorwf	main@key^(0+128),w
  2951     0251  1D03               	btfss	3,2
  2952     0252  2A54               	goto	u4991
  2953     0253  2A55               	goto	u4990
  2954     0254                     u4991:
  2955     0254  2A6B               	goto	l5417
  2956     0255                     u4990:
  2957     0255                     l5411:
  2958     0255  3004               	movlw	4
  2959     0256  0666               	xorwf	main@control_flag^(0+128),w
  2960     0257  1903               	btfsc	3,2
  2961     0258  2A5A               	goto	u5001
  2962     0259  2A5B               	goto	u5000
  2963     025A                     u5001:
  2964     025A  2A61               	goto	l92
  2965     025B                     u5000:
  2966     025B                     l5413:
  2967     025B  3008               	movlw	8
  2968     025C  0666               	xorwf	main@control_flag^(0+128),w
  2969     025D  1D03               	btfss	3,2
  2970     025E  2A60               	goto	u5011
  2971     025F  2A61               	goto	u5010
  2972     0260                     u5011:
  2973     0260  2A6B               	goto	l5417
  2974     0261                     u5010:
  2975     0261                     l92:
  2976                           
  2977                           ;main.c: 133:         switch(control_flag);main.c: 134:         {
  2978     0261  01E6               	clrf	main@control_flag^(0+128)
  2979     0262  0AE6               	incf	main@control_flag^(0+128),f
  2980     0263                     l5415:
  2981                           
  2982                           ;main.c: 135:             case 0x01 :
  2983     0263  01F3               	clrf	clcd_write@mode
  2984     0264  3001               	movlw	1
  2985     0265  160A  118A  22C6  120A  118A  	fcall	_clcd_write
  2986                           
  2987                           ;main.c: 136:                 clcd_write(0x0C, 0);
  2988     026A  2C0D               	goto	l5501
  2989     026B                     l5417:
  2990     026B  3011               	movlw	17
  2991     026C  0669               	xorwf	main@key^(0+128),w
  2992     026D  1D03               	btfss	3,2
  2993     026E  2A70               	goto	u5021
  2994     026F  2A71               	goto	u5020
  2995     0270                     u5021:
  2996     0270  2A81               	goto	l80
  2997     0271                     u5020:
  2998     0271                     l5419:
  2999     0271  3008               	movlw	8
  3000     0272  0666               	xorwf	main@control_flag^(0+128),w
  3001     0273  1D03               	btfss	3,2
  3002     0274  2A76               	goto	u5031
  3003     0275  2A77               	goto	u5030
  3004     0276                     u5031:
  3005     0276  2A81               	goto	l80
  3006     0277                     u5030:
  3007     0277                     l5421:
  3008                           
  3009                           ;main.c: 138:                 display_dash_board(event,speed);;main.c: 139:             
      +                              break;
  3010     0277  3004               	movlw	4
  3011     0278  00E6               	movwf	main@control_flag^(0+128)
  3012     0279                     l5423:
  3013                           
  3014                           ;main.c: 140: 
  3015     0279  01F3               	clrf	clcd_write@mode
  3016     027A  3001               	movlw	1
  3017     027B  160A  118A  22C6  120A  118A  	fcall	_clcd_write
  3018     0280  2C0D               	goto	l5501
  3019     0281                     l80:
  3020     0281  2C0D               	goto	l5501
  3021     0282                     l5425:
  3022                           
  3023                           ;main.c: 146:                        reset_flag = 0x05;
  3024     0282  01F3               	clrf	clcd_write@mode
  3025     0283  300C               	movlw	12
  3026     0284  160A  118A  22C6  120A  118A  	fcall	_clcd_write
  3027     0289                     l5427:
  3028                           
  3029                           ;main.c: 147:                        clcd_write(0x01, 0);
  3030     0289  30A5               	movlw	165
  3031     028A  1283               	bcf	3,5	;RP0=0, select bank0
  3032     028B  1303               	bcf	3,6	;RP1=0, select bank0
  3033     028C  00C0               	movwf	??_main
  3034     028D                     u5157:
  3035     028D  0BC0               	decfsz	??_main,f
  3036     028E  2A8D               	goto	u5157
  3037     028F  2A90               	nop2
  3038     0290                     l5429:
  3039                           
  3040                           ;main.c: 148:                        _delay((unsigned long)((500)*(20000000/4000000.0)))
      +                          ;
  3041     0290  1683               	bsf	3,5	;RP0=1, select bank1
  3042     0291  1303               	bcf	3,6	;RP1=0, select bank1
  3043     0292  0868               	movf	main@speed^(0+128),w
  3044     0293  1283               	bcf	3,5	;RP0=0, select bank0
  3045     0294  1303               	bcf	3,6	;RP1=0, select bank0
  3046     0295  00A9               	movwf	display_dash_board@speed
  3047     0296  30E0               	movlw	(low (main@event| 0))& (0+255)
  3048     0297  160A  118A  24CA  120A  118A  	fcall	_display_dash_board
  3049                           
  3050                           ;main.c: 149:                        clcd_write(0x0C, 0);
  3051     029C  2C30               	goto	l5503
  3052     029D                     l5431:
  3053                           
  3054                           ;main.c: 155:                        TMR2ON = 0;
  3055     029D  3004               	movlw	4
  3056     029E  1683               	bsf	3,5	;RP0=1, select bank1
  3057     029F  1303               	bcf	3,6	;RP1=0, select bank1
  3058     02A0  00E6               	movwf	main@control_flag^(0+128)
  3059                           
  3060                           ;main.c: 156:                        clcd_write(0x0C, 0);
  3061     02A1  3005               	movlw	5
  3062     02A2  00E7               	movwf	main@reset_flag^(0+128)
  3063     02A3                     l5433:
  3064                           
  3065                           ;main.c: 157:                        _delay((unsigned long)((100)*(20000000/4000000.0)))
      +                          ;
  3066     02A3  01F3               	clrf	clcd_write@mode
  3067     02A4  3001               	movlw	1
  3068     02A5  160A  118A  22C6  120A  118A  	fcall	_clcd_write
  3069     02AA                     l5435:
  3070                           
  3071                           ;main.c: 158:                        break;
  3072     02AA  3004               	movlw	4
  3073     02AB  1283               	bcf	3,5	;RP0=0, select bank0
  3074     02AC  1303               	bcf	3,6	;RP1=0, select bank0
  3075     02AD  00C1               	movwf	??_main+1
  3076     02AE  303D               	movlw	61
  3077     02AF  00C0               	movwf	??_main
  3078     02B0                     u5167:
  3079     02B0  0BC0               	decfsz	??_main,f
  3080     02B1  2AB0               	goto	u5167
  3081     02B2  0BC1               	decfsz	??_main+1,f
  3082     02B3  2AB0               	goto	u5167
  3083                           
  3084                           ;main.c: 159: 
  3085     02B4  01F3               	clrf	clcd_write@mode
  3086     02B5  300C               	movlw	12
  3087     02B6  160A  118A  22C6  120A  118A  	fcall	_clcd_write
  3088     02BB                     l5437:
  3089                           
  3090                           ;main.c: 160:                 }
  3091     02BB  30A5               	movlw	165
  3092     02BC  1283               	bcf	3,5	;RP0=0, select bank0
  3093     02BD  1303               	bcf	3,6	;RP1=0, select bank0
  3094     02BE  00C0               	movwf	??_main
  3095     02BF                     u5177:
  3096     02BF  0BC0               	decfsz	??_main,f
  3097     02C0  2ABF               	goto	u5177
  3098     02C1  2AC2               	nop2
  3099                           
  3100                           ;main.c: 161:                break;
  3101     02C2  2C30               	goto	l5503
  3102     02C3                     l102:	
  3103                           ;main.c: 163: 
  3104                           
  3105                           
  3106                           ;main.c: 164:                 menu_pos = login_menu(key,reset_flag);
  3107     02C3  1683               	bsf	3,5	;RP0=1, select bank1
  3108     02C4  1303               	bcf	3,6	;RP1=0, select bank1
  3109     02C5  01E6               	clrf	main@control_flag^(0+128)
  3110     02C6  0AE6               	incf	main@control_flag^(0+128),f
  3111                           
  3112                           ;main.c: 165:                 break;
  3113     02C7  1283               	bcf	3,5	;RP0=0, select bank0
  3114     02C8  1303               	bcf	3,6	;RP1=0, select bank0
  3115     02C9  1112               	bcf	18,2	;volatile
  3116     02CA                     l5439:
  3117                           
  3118                           ;main.c: 166: 
  3119     02CA  01F3               	clrf	clcd_write@mode
  3120     02CB  300C               	movlw	12
  3121     02CC  160A  118A  22C6  120A  118A  	fcall	_clcd_write
  3122     02D1  2ABB               	goto	l5437
  3123     02D2                     l5445:
  3124     02D2  1683               	bsf	3,5	;RP0=1, select bank1
  3125     02D3  1303               	bcf	3,6	;RP1=0, select bank1
  3126     02D4  0867               	movf	main@reset_flag^(0+128),w
  3127     02D5  1283               	bcf	3,5	;RP0=0, select bank0
  3128     02D6  1303               	bcf	3,6	;RP1=0, select bank0
  3129     02D7  00A9               	movwf	login@reset_flag
  3130     02D8  1683               	bsf	3,5	;RP0=1, select bank1
  3131     02D9  1303               	bcf	3,6	;RP1=0, select bank1
  3132     02DA  0869               	movf	main@key^(0+128),w
  3133     02DB  120A  158A  24F0  120A  118A  	fcall	_login
  3134     02E0  1283               	bcf	3,5	;RP0=0, select bank0
  3135     02E1  1303               	bcf	3,6	;RP1=0, select bank0
  3136     02E2  00C0               	movwf	??_main
  3137     02E3  01C1               	clrf	??_main+1
  3138                           
  3139                           ; Switch on 2 bytes has been partitioned into a top level switch of size 1, and 1 sub-sw
      +                          itches
  3140                           ; Switch size 1, requested type "simple"
  3141                           ; Number of cases is 1, Range of values is 0 to 0
  3142                           ; switch strategies available:
  3143                           ; Name         Instructions Cycles
  3144                           ; simple_byte            4     3 (average)
  3145                           ; direct_byte           11     8 (fixed)
  3146                           ; jumptable            260     6 (fixed)
  3147                           ;	Chosen strategy is simple_byte
  3148     02E4  0841               	movf	??_main+1,w
  3149     02E5  3A00               	xorlw	0	; case 0
  3150     02E6  1903               	skipnz
  3151     02E7  2AE9               	goto	l5731
  3152     02E8  2C30               	goto	l5503
  3153     02E9                     l5731:
  3154                           
  3155                           ; Switch size 1, requested type "simple"
  3156                           ; Number of cases is 2, Range of values is 1 to 3
  3157                           ; switch strategies available:
  3158                           ; Name         Instructions Cycles
  3159                           ; simple_byte            7     4 (average)
  3160                           ; direct_byte           20    11 (fixed)
  3161                           ; jumptable            263     9 (fixed)
  3162                           ;	Chosen strategy is simple_byte
  3163     02E9  0840               	movf	??_main,w
  3164     02EA  3A01               	xorlw	1	; case 1
  3165     02EB  1903               	skipnz
  3166     02EC  2A9D               	goto	l5431
  3167     02ED  3A02               	xorlw	2	; case 3
  3168     02EE  1903               	skipnz
  3169     02EF  2AC3               	goto	l102
  3170     02F0  2C30               	goto	l5503
  3171     02F1                     l5447:
  3172                           
  3173                           ;main.c: 174:     if ( clear_log(reset_flag) == 0x11 )
  3174     02F1  1683               	bsf	3,5	;RP0=1, select bank1
  3175     02F2  1303               	bcf	3,6	;RP1=0, select bank1
  3176     02F3  0867               	movf	main@reset_flag^(0+128),w
  3177     02F4  1283               	bcf	3,5	;RP0=0, select bank0
  3178     02F5  1303               	bcf	3,6	;RP1=0, select bank0
  3179     02F6  00A9               	movwf	login_menu@reset_flag
  3180     02F7  1683               	bsf	3,5	;RP0=1, select bank1
  3181     02F8  1303               	bcf	3,6	;RP1=0, select bank1
  3182     02F9  0869               	movf	main@key^(0+128),w
  3183     02FA  160A  118A  270F  120A  118A  	fcall	_login_menu
  3184     02FF  1683               	bsf	3,5	;RP0=1, select bank1
  3185     0300  1303               	bcf	3,6	;RP1=0, select bank1
  3186     0301  00DF               	movwf	main@menu_pos^(0+128)
  3187                           
  3188                           ;main.c: 175:      wait_time = 50;
  3189     0302  2C30               	goto	l5503
  3190     0303                     l5449:
  3191                           
  3192                           ;main.c: 179: 
  3193     0303  1683               	bsf	3,5	;RP0=1, select bank1
  3194     0304  1303               	bcf	3,6	;RP1=0, select bank1
  3195     0305  0867               	movf	main@reset_flag^(0+128),w
  3196     0306  1283               	bcf	3,5	;RP0=0, select bank0
  3197     0307  1303               	bcf	3,6	;RP1=0, select bank0
  3198     0308  00A9               	movwf	view_log@reset_shift
  3199     0309  1683               	bsf	3,5	;RP0=1, select bank1
  3200     030A  1303               	bcf	3,6	;RP1=0, select bank1
  3201     030B  0869               	movf	main@key^(0+128),w
  3202     030C  120A  158A  2670  120A  118A  	fcall	_view_log
  3203                           
  3204                           ;main.c: 180:     if (wait_time > 0 && --wait_time == 0 )
  3205     0311  2C30               	goto	l5503
  3206     0312                     l5451:
  3207                           
  3208                           ;main.c: 184:                     clcd_write(0x01,0);
  3209     0312  1683               	bsf	3,5	;RP0=1, select bank1
  3210     0313  1303               	bcf	3,6	;RP1=0, select bank1
  3211     0314  0867               	movf	main@reset_flag^(0+128),w
  3212     0315  160A  118A  2230  120A  118A  	fcall	_clear_log
  3213     031A  3A11               	xorlw	17
  3214     031B  1D03               	skipz
  3215     031C  2B1E               	goto	u5041
  3216     031D  2B1F               	goto	u5040
  3217     031E                     u5041:
  3218     031E  2B25               	goto	l5455
  3219     031F                     u5040:
  3220     031F                     l5453:
  3221                           
  3222                           ;main.c: 185:      continue;
  3223     031F  3032               	movlw	50
  3224     0320  1683               	bsf	3,5	;RP0=1, select bank1
  3225     0321  1303               	bcf	3,6	;RP1=0, select bank1
  3226     0322  00E4               	movwf	main@wait_time^(0+128)
  3227     0323  3000               	movlw	0
  3228     0324  00E5               	movwf	(main@wait_time^(0+128)+1)
  3229     0325                     l5455:
  3230                           
  3231                           ;main.c: 187: 
  3232     0325  3004               	movlw	4
  3233     0326  1683               	bsf	3,5	;RP0=1, select bank1
  3234     0327  1303               	bcf	3,6	;RP1=0, select bank1
  3235     0328  0667               	xorwf	main@reset_flag^(0+128),w
  3236     0329  1D03               	btfss	3,2
  3237     032A  2B2C               	goto	u5051
  3238     032B  2B2D               	goto	u5050
  3239     032C                     u5051:
  3240     032C  2B3E               	goto	l5459
  3241     032D                     u5050:
  3242     032D                     l5457:
  3243                           
  3244                           ;main.c: 188:     break;
  3245     032D  307F               	movlw	low (STR_13| (0+32768))
  3246     032E  1283               	bcf	3,5	;RP0=0, select bank0
  3247     032F  1303               	bcf	3,6	;RP1=0, select bank0
  3248     0330  00A4               	movwf	log_car_event@event
  3249     0331  3089               	movlw	high (STR_13| (0+32768))
  3250     0332  00A5               	movwf	log_car_event@event+1
  3251     0333  1683               	bsf	3,5	;RP0=1, select bank1
  3252     0334  1303               	bcf	3,6	;RP1=0, select bank1
  3253     0335  0868               	movf	main@speed^(0+128),w
  3254     0336  1283               	bcf	3,5	;RP0=0, select bank0
  3255     0337  1303               	bcf	3,6	;RP1=0, select bank0
  3256     0338  00A6               	movwf	log_car_event@speed
  3257     0339  160A  118A  2521  120A  118A  	fcall	_log_car_event
  3258     033E                     l5459:
  3259                           
  3260                           ;main.c: 190: 
  3261     033E  1683               	bsf	3,5	;RP0=1, select bank1
  3262     033F  1303               	bcf	3,6	;RP1=0, select bank1
  3263     0340  0865               	movf	(main@wait_time+1)^(0+128),w
  3264     0341  3A80               	xorlw	128
  3265     0342  00FF               	movwf	btemp+1
  3266     0343  3080               	movlw	128
  3267     0344  027F               	subwf	btemp+1,w
  3268     0345  1D03               	skipz
  3269     0346  2B49               	goto	u5065
  3270     0347  3001               	movlw	1
  3271     0348  0264               	subwf	main@wait_time^(0+128),w
  3272     0349                     u5065:
  3273     0349  1C03               	skipc
  3274     034A  2B4C               	goto	u5061
  3275     034B  2B4D               	goto	u5060
  3276     034C                     u5061:
  3277     034C  2C30               	goto	l5503
  3278     034D                     u5060:
  3279     034D                     l5461:
  3280     034D  30FF               	movlw	255
  3281     034E  1683               	bsf	3,5	;RP0=1, select bank1
  3282     034F  1303               	bcf	3,6	;RP1=0, select bank1
  3283     0350  07E4               	addwf	main@wait_time^(0+128),f
  3284     0351  1803               	skipnc
  3285     0352  0AE5               	incf	(main@wait_time+1)^(0+128),f
  3286     0353  30FF               	movlw	255
  3287     0354  07E5               	addwf	(main@wait_time+1)^(0+128),f
  3288     0355  0864               	movf	main@wait_time^(0+128),w
  3289     0356  0465               	iorwf	(main@wait_time+1)^(0+128),w
  3290     0357  1D03               	btfss	3,2
  3291     0358  2B5A               	goto	u5071
  3292     0359  2B5B               	goto	u5070
  3293     035A                     u5071:
  3294     035A  2C30               	goto	l5503
  3295     035B                     u5070:
  3296     035B                     l5463:
  3297                           
  3298                           ;main.c: 191:     if ( change_time( key ,reset_flag ) == 0x11 );main.c: 192:      wait_t
      +                          ime = 100;
  3299     035B  3004               	movlw	4
  3300     035C  00E6               	movwf	main@control_flag^(0+128)
  3301                           
  3302                           ;main.c: 193: 
  3303     035D  3005               	movlw	5
  3304     035E  00E7               	movwf	main@reset_flag^(0+128)
  3305     035F                     l5465:
  3306                           
  3307                           ;main.c: 194:     if (wait_time > 0 && --wait_time == 0 )
  3308     035F  01F3               	clrf	clcd_write@mode
  3309     0360  3001               	movlw	1
  3310     0361  160A  118A  22C6  120A  118A  	fcall	_clcd_write
  3311                           
  3312                           ;main.c: 195:     {
  3313     0366  2888               	goto	l5301
  3314     0367                     l5467:
  3315                           
  3316                           ;main.c: 201:     break;
  3317     0367  1683               	bsf	3,5	;RP0=1, select bank1
  3318     0368  1303               	bcf	3,6	;RP1=0, select bank1
  3319     0369  0867               	movf	main@reset_flag^(0+128),w
  3320     036A  1283               	bcf	3,5	;RP0=0, select bank0
  3321     036B  1303               	bcf	3,6	;RP1=0, select bank0
  3322     036C  00A9               	movwf	change_time@reset_time
  3323     036D  1683               	bsf	3,5	;RP0=1, select bank1
  3324     036E  1303               	bcf	3,6	;RP1=0, select bank1
  3325     036F  0869               	movf	main@key^(0+128),w
  3326     0370  120A  118A  2437  120A  118A  	fcall	_change_time
  3327     0375  3A11               	xorlw	17
  3328     0376  1D03               	skipz
  3329     0377  2B79               	goto	u5081
  3330     0378  2B7A               	goto	u5080
  3331     0379                     u5081:
  3332     0379  2B80               	goto	l5471
  3333     037A                     u5080:
  3334     037A                     l5469:
  3335                           
  3336                           ;main.c: 202: 
  3337     037A  3064               	movlw	100
  3338     037B  1683               	bsf	3,5	;RP0=1, select bank1
  3339     037C  1303               	bcf	3,6	;RP1=0, select bank1
  3340     037D  00E4               	movwf	main@wait_time^(0+128)
  3341     037E  3000               	movlw	0
  3342     037F  00E5               	movwf	(main@wait_time^(0+128)+1)
  3343     0380                     l5471:
  3344                           
  3345                           ;main.c: 204:     switch ( change_password( key ,reset_flag ) )
  3346     0380  1683               	bsf	3,5	;RP0=1, select bank1
  3347     0381  1303               	bcf	3,6	;RP1=0, select bank1
  3348     0382  0865               	movf	(main@wait_time+1)^(0+128),w
  3349     0383  3A80               	xorlw	128
  3350     0384  00FF               	movwf	btemp+1
  3351     0385  3080               	movlw	128
  3352     0386  027F               	subwf	btemp+1,w
  3353     0387  1D03               	skipz
  3354     0388  2B8B               	goto	u5095
  3355     0389  3001               	movlw	1
  3356     038A  0264               	subwf	main@wait_time^(0+128),w
  3357     038B                     u5095:
  3358     038B  1C03               	skipc
  3359     038C  2B8E               	goto	u5091
  3360     038D  2B8F               	goto	u5090
  3361     038E                     u5091:
  3362     038E  2C30               	goto	l5503
  3363     038F                     u5090:
  3364     038F                     l5473:
  3365     038F  30FF               	movlw	255
  3366     0390  1683               	bsf	3,5	;RP0=1, select bank1
  3367     0391  1303               	bcf	3,6	;RP1=0, select bank1
  3368     0392  07E4               	addwf	main@wait_time^(0+128),f
  3369     0393  1803               	skipnc
  3370     0394  0AE5               	incf	(main@wait_time+1)^(0+128),f
  3371     0395  30FF               	movlw	255
  3372     0396  07E5               	addwf	(main@wait_time+1)^(0+128),f
  3373     0397  0864               	movf	main@wait_time^(0+128),w
  3374     0398  0465               	iorwf	(main@wait_time+1)^(0+128),w
  3375     0399  1D03               	btfss	3,2
  3376     039A  2B9C               	goto	u5101
  3377     039B  2B9D               	goto	u5100
  3378     039C                     u5101:
  3379     039C  2C30               	goto	l5503
  3380     039D                     u5100:
  3381     039D                     l5475:
  3382                           
  3383                           ;main.c: 205:     {;main.c: 206:      case 0x11 :
  3384     039D  3004               	movlw	4
  3385     039E  00E6               	movwf	main@control_flag^(0+128)
  3386                           
  3387                           ;main.c: 207:                         wait_time = 100;
  3388     039F  3005               	movlw	5
  3389     03A0  00E7               	movwf	main@reset_flag^(0+128)
  3390     03A1                     l5477:
  3391                           
  3392                           ;main.c: 208: 
  3393     03A1  01F3               	clrf	clcd_write@mode
  3394     03A2  3001               	movlw	1
  3395     03A3  160A  118A  22C6  120A  118A  	fcall	_clcd_write
  3396                           
  3397                           ;main.c: 209:                         clcd_write(0x0C,0);
  3398     03A8  2888               	goto	l5301
  3399     03A9                     l5479:
  3400                           
  3401                           ;main.c: 217:     }
  3402     03A9  3064               	movlw	100
  3403     03AA  1683               	bsf	3,5	;RP0=1, select bank1
  3404     03AB  1303               	bcf	3,6	;RP1=0, select bank1
  3405     03AC  00E4               	movwf	main@wait_time^(0+128)
  3406     03AD  3000               	movlw	0
  3407     03AE  00E5               	movwf	(main@wait_time^(0+128)+1)
  3408     03AF                     l5481:
  3409                           
  3410                           ;main.c: 219:     if (wait_time > 0 && --wait_time == 0 )
  3411     03AF  01F3               	clrf	clcd_write@mode
  3412     03B0  300C               	movlw	12
  3413     03B1  160A  118A  22C6  120A  118A  	fcall	_clcd_write
  3414                           
  3415                           ;main.c: 220:     {
  3416     03B6  2BE4               	goto	l5491
  3417     03B7                     l5483:
  3418                           
  3419                           ;main.c: 223:                     clcd_write(0x01,0);
  3420     03B7  3004               	movlw	4
  3421     03B8  1683               	bsf	3,5	;RP0=1, select bank1
  3422     03B9  1303               	bcf	3,6	;RP1=0, select bank1
  3423     03BA  00E6               	movwf	main@control_flag^(0+128)
  3424                           
  3425                           ;main.c: 224:      continue;
  3426     03BB  3005               	movlw	5
  3427     03BC  00E7               	movwf	main@reset_flag^(0+128)
  3428     03BD                     l5485:
  3429                           
  3430                           ;main.c: 225:     }
  3431     03BD  01F3               	clrf	clcd_write@mode
  3432     03BE  300C               	movlw	12
  3433     03BF  160A  118A  22C6  120A  118A  	fcall	_clcd_write
  3434                           
  3435                           ;main.c: 226:     break;
  3436     03C4  2888               	goto	l5301
  3437     03C5                     l5489:
  3438     03C5  1683               	bsf	3,5	;RP0=1, select bank1
  3439     03C6  1303               	bcf	3,6	;RP1=0, select bank1
  3440     03C7  0867               	movf	main@reset_flag^(0+128),w
  3441     03C8  1283               	bcf	3,5	;RP0=0, select bank0
  3442     03C9  1303               	bcf	3,6	;RP1=0, select bank0
  3443     03CA  00A9               	movwf	change_password@reset_pwd
  3444     03CB  1683               	bsf	3,5	;RP0=1, select bank1
  3445     03CC  1303               	bcf	3,6	;RP1=0, select bank1
  3446     03CD  0869               	movf	main@key^(0+128),w
  3447     03CE  120A  158A  2393  120A  118A  	fcall	_change_password
  3448     03D3  1283               	bcf	3,5	;RP0=0, select bank0
  3449     03D4  1303               	bcf	3,6	;RP1=0, select bank0
  3450     03D5  00C0               	movwf	??_main
  3451     03D6  01C1               	clrf	??_main+1
  3452                           
  3453                           ; Switch on 2 bytes has been partitioned into a top level switch of size 1, and 1 sub-sw
      +                          itches
  3454                           ; Switch size 1, requested type "simple"
  3455                           ; Number of cases is 1, Range of values is 0 to 0
  3456                           ; switch strategies available:
  3457                           ; Name         Instructions Cycles
  3458                           ; simple_byte            4     3 (average)
  3459                           ; direct_byte           11     8 (fixed)
  3460                           ; jumptable            260     6 (fixed)
  3461                           ;	Chosen strategy is simple_byte
  3462     03D7  0841               	movf	??_main+1,w
  3463     03D8  3A00               	xorlw	0	; case 0
  3464     03D9  1903               	skipnz
  3465     03DA  2BDC               	goto	l5733
  3466     03DB  2BE4               	goto	l5491
  3467     03DC                     l5733:
  3468                           
  3469                           ; Switch size 1, requested type "simple"
  3470                           ; Number of cases is 2, Range of values is 3 to 17
  3471                           ; switch strategies available:
  3472                           ; Name         Instructions Cycles
  3473                           ; simple_byte            7     4 (average)
  3474                           ; direct_byte           56    11 (fixed)
  3475                           ; jumptable            263     9 (fixed)
  3476                           ;	Chosen strategy is simple_byte
  3477     03DC  0840               	movf	??_main,w
  3478     03DD  3A03               	xorlw	3	; case 3
  3479     03DE  1903               	skipnz
  3480     03DF  2BB7               	goto	l5483
  3481     03E0  3A12               	xorlw	18	; case 17
  3482     03E1  1903               	skipnz
  3483     03E2  2BA9               	goto	l5479
  3484     03E3  2BE4               	goto	l5491
  3485     03E4                     l5491:
  3486                           
  3487                           ;main.c: 229:     }
  3488     03E4  1683               	bsf	3,5	;RP0=1, select bank1
  3489     03E5  1303               	bcf	3,6	;RP1=0, select bank1
  3490     03E6  0865               	movf	(main@wait_time+1)^(0+128),w
  3491     03E7  3A80               	xorlw	128
  3492     03E8  00FF               	movwf	btemp+1
  3493     03E9  3080               	movlw	128
  3494     03EA  027F               	subwf	btemp+1,w
  3495     03EB  1D03               	skipz
  3496     03EC  2BEF               	goto	u5115
  3497     03ED  3001               	movlw	1
  3498     03EE  0264               	subwf	main@wait_time^(0+128),w
  3499     03EF                     u5115:
  3500     03EF  1C03               	skipc
  3501     03F0  2BF2               	goto	u5111
  3502     03F1  2BF3               	goto	u5110
  3503     03F2                     u5111:
  3504     03F2  2C30               	goto	l5503
  3505     03F3                     u5110:
  3506     03F3                     l5493:
  3507     03F3  30FF               	movlw	255
  3508     03F4  1683               	bsf	3,5	;RP0=1, select bank1
  3509     03F5  1303               	bcf	3,6	;RP1=0, select bank1
  3510     03F6  07E4               	addwf	main@wait_time^(0+128),f
  3511     03F7  1803               	skipnc
  3512     03F8  0AE5               	incf	(main@wait_time+1)^(0+128),f
  3513     03F9  30FF               	movlw	255
  3514     03FA  07E5               	addwf	(main@wait_time+1)^(0+128),f
  3515     03FB  0864               	movf	main@wait_time^(0+128),w
  3516     03FC  0465               	iorwf	(main@wait_time+1)^(0+128),w
  3517     03FD  1D03               	btfss	3,2
  3518     03FE  2C00               	goto	u5121
  3519     03FF  2C01               	goto	u5120
  3520     0400                     u5121:
  3521     0400  2C30               	goto	l5503
  3522     0401                     u5120:
  3523     0401                     l5495:
  3524                           
  3525                           ;main.c: 230:     return;;main.c: 231: }
  3526     0401  3004               	movlw	4
  3527     0402  00E6               	movwf	main@control_flag^(0+128)
  3528     0403  3005               	movlw	5
  3529     0404  00E7               	movwf	main@reset_flag^(0+128)
  3530     0405                     l5497:
  3531     0405  01F3               	clrf	clcd_write@mode
  3532     0406  3001               	movlw	1
  3533     0407  160A  118A  22C6  120A  118A  	fcall	_clcd_write
  3534     040C  2888               	goto	l5301
  3535     040D                     l5501:
  3536     040D  1683               	bsf	3,5	;RP0=1, select bank1
  3537     040E  1303               	bcf	3,6	;RP1=0, select bank1
  3538     040F  0866               	movf	main@control_flag^(0+128),w
  3539     0410  1283               	bcf	3,5	;RP0=0, select bank0
  3540     0411  1303               	bcf	3,6	;RP1=0, select bank0
  3541     0412  00C0               	movwf	??_main
  3542     0413  01C1               	clrf	??_main+1
  3543                           
  3544                           ; Switch on 2 bytes has been partitioned into a top level switch of size 1, and 1 sub-sw
      +                          itches
  3545                           ; Switch size 1, requested type "simple"
  3546                           ; Number of cases is 1, Range of values is 0 to 0
  3547                           ; switch strategies available:
  3548                           ; Name         Instructions Cycles
  3549                           ; simple_byte            4     3 (average)
  3550                           ; direct_byte           11     8 (fixed)
  3551                           ; jumptable            260     6 (fixed)
  3552                           ;	Chosen strategy is simple_byte
  3553     0414  0841               	movf	??_main+1,w
  3554     0415  3A00               	xorlw	0	; case 0
  3555     0416  1903               	skipnz
  3556     0417  2C19               	goto	l5735
  3557     0418  2C30               	goto	l5503
  3558     0419                     l5735:
  3559                           
  3560                           ; Switch size 1, requested type "simple"
  3561                           ; Number of cases is 7, Range of values is 1 to 128
  3562                           ; switch strategies available:
  3563                           ; Name         Instructions Cycles
  3564                           ; simple_byte           22    12 (average)
  3565                           ; jumptable            263     9 (fixed)
  3566                           ;	Chosen strategy is simple_byte
  3567     0419  0840               	movf	??_main,w
  3568     041A  3A01               	xorlw	1	; case 1
  3569     041B  1903               	skipnz
  3570     041C  2A82               	goto	l5425
  3571     041D  3A03               	xorlw	3	; case 2
  3572     041E  1903               	skipnz
  3573     041F  2AD2               	goto	l5445
  3574     0420  3A06               	xorlw	6	; case 4
  3575     0421  1903               	skipnz
  3576     0422  2AF1               	goto	l5447
  3577     0423  3A0C               	xorlw	12	; case 8
  3578     0424  1903               	skipnz
  3579     0425  2B03               	goto	l5449
  3580     0426  3A18               	xorlw	24	; case 16
  3581     0427  1903               	skipnz
  3582     0428  2B12               	goto	l5451
  3583     0429  3A50               	xorlw	80	; case 64
  3584     042A  1903               	skipnz
  3585     042B  2B67               	goto	l5467
  3586     042C  3AC0               	xorlw	192	; case 128
  3587     042D  1903               	skipnz
  3588     042E  2BC5               	goto	l5489
  3589     042F  2C30               	goto	l5503
  3590     0430                     l5503:
  3591     0430  1683               	bsf	3,5	;RP0=1, select bank1
  3592     0431  1303               	bcf	3,6	;RP1=0, select bank1
  3593     0432  01E7               	clrf	main@reset_flag^(0+128)
  3594     0433  2888               	goto	l5301
  3595     0434  120A  118A  280E   	ljmp	start
  3596     0437                     __end_of_main:
  3597                           
  3598                           	psect	text1
  3599     0E70                     __ptext1:	
  3600 ;; *************** function _view_log *****************
  3601 ;; Defined at:
  3602 ;;		line 246 in file "display.c"
  3603 ;; Parameters:    Size  Location     Type
  3604 ;;  key             1    wreg     unsigned char 
  3605 ;;  reset_shift     1    9[BANK0 ] unsigned char 
  3606 ;; Auto vars:     Size  Location     Type
  3607 ;;  key             1   23[BANK0 ] unsigned char 
  3608 ;;  i               4   24[BANK0 ] unsigned long 
  3609 ;;  i               2   30[BANK0 ] int 
  3610 ;;  rlog           11   11[BANK0 ] unsigned char [11]
  3611 ;;  rpos            2   28[BANK0 ] int 
  3612 ;;  add             1   22[BANK0 ] unsigned char 
  3613 ;; Return value:  Size  Location     Type
  3614 ;;                  1    wreg      void 
  3615 ;; Registers used:
  3616 ;;		wreg, fsr0l, fsr0h, status,2, status,0, btemp+1, pclath, cstack
  3617 ;; Tracked objects:
  3618 ;;		On entry : 0/0
  3619 ;;		On exit  : 0/0
  3620 ;;		Unchanged: 0/0
  3621 ;; Data sizes:     COMMON   BANK0   BANK1   BANK3   BANK2
  3622 ;;      Params:         0       1       0       0       0
  3623 ;;      Locals:         0      21       0       0       0
  3624 ;;      Temps:          0       1       0       0       0
  3625 ;;      Totals:         0      23       0       0       0
  3626 ;;Total ram usage:       23 bytes
  3627 ;; Hardware stack levels used: 1
  3628 ;; Hardware stack levels required when called: 4
  3629 ;; This function calls:
  3630 ;;		___awmod
  3631 ;;		___bmul
  3632 ;;		_clcd_print
  3633 ;;		_clcd_putch
  3634 ;;		_clcd_write
  3635 ;;		_ext_eeprom_24C02_read
  3636 ;; This function is called by:
  3637 ;;		_main
  3638 ;; This function uses a non-reentrant model
  3639 ;;
  3640                           
  3641     0E70                     _view_log:	
  3642                           ;psect for function _view_log
  3643                           
  3644                           
  3645                           ;incstack = 0
  3646                           ; Regs used in _view_log: [wreg-fsr0h+status,2+status,0+btemp+1+pclath+cstack]
  3647                           ;view_log@key stored from wreg
  3648     0E70  1283               	bcf	3,5	;RP0=0, select bank0
  3649     0E71  1303               	bcf	3,6	;RP1=0, select bank0
  3650     0E72  00B7               	movwf	view_log@key
  3651     0E73                     l4965:
  3652                           
  3653                           ;display.c: 246:  {;display.c: 247:   clcd_print ("No logs avaiable" , (0xC0 + 0));;disp
      +                          lay.c: 248:  };display.c: 249:  else;display.c: 250:  {
  3654     0E73  01B5               	clrf	view_log@rlog+10
  3655     0E74                     l4967:
  3656                           
  3657                           ;display.c: 251:   if ( reset_shift == 0x08 );display.c: 252:    shift = 0 ;;display.c: 
      +                          253:   rpos = (overflow)? (pos + 1) % 10 : 0;
  3658     0E74  0A64               	incf	_access,w
  3659     0E75  1D03               	skipz
  3660     0E76  2E7B               	goto	u4541
  3661     0E77  0A65               	incf	_access+1,w
  3662     0E78  1D03               	btfss	3,2
  3663     0E79  2E7B               	goto	u4541
  3664     0E7A  2E7C               	goto	u4540
  3665     0E7B                     u4541:
  3666     0E7B  2E88               	goto	l4971
  3667     0E7C                     u4540:
  3668     0E7C                     l4969:
  3669                           
  3670                           ;display.c: 254: ;display.c: 255:   if ( key == 0x37 && shift < access )
  3671     0E7C  308E               	movlw	low (STR_25| (0+32768))
  3672     0E7D  00A0               	movwf	clcd_print@str
  3673     0E7E  3088               	movlw	high (STR_25| (0+32768))
  3674     0E7F  00A1               	movwf	clcd_print@str+1
  3675     0E80  30C0               	movlw	192
  3676     0E81  00A2               	movwf	clcd_print@addr
  3677     0E82  160A  118A  225F  120A  158A  	fcall	_clcd_print
  3678                           
  3679                           ;display.c: 256:         {
  3680     0E87  2FFF               	goto	l373
  3681     0E88                     l4971:
  3682                           
  3683                           ;display.c: 258:             clcd_print("                 ", (0xC0 + 0)) ;;display.c: 25
      +                          9:         }
  3684     0E88  3008               	movlw	8
  3685     0E89  0629               	xorwf	view_log@reset_shift,w
  3686     0E8A  1D03               	btfss	3,2
  3687     0E8B  2E8D               	goto	u4551
  3688     0E8C  2E8E               	goto	u4550
  3689     0E8D                     u4551:
  3690     0E8D  2E90               	goto	l4975
  3691     0E8E                     u4550:
  3692     0E8E                     l4973:
  3693                           
  3694                           ;display.c: 260:   else if ( key == 0x2F && shift > 0 )
  3695     0E8E  01D1               	clrf	view_log@shift
  3696     0E8F  01D2               	clrf	view_log@shift+1
  3697     0E90                     l4975:
  3698                           
  3699                           ;display.c: 261:         {
  3700     0E90  085F               	movf	_overflow,w
  3701     0E91  1D03               	btfss	3,2
  3702     0E92  2E94               	goto	u4561
  3703     0E93  2E95               	goto	u4560
  3704     0E94                     u4561:
  3705     0E94  2E98               	goto	l4979
  3706     0E95                     u4560:
  3707     0E95                     l4977:
  3708     0E95  01BC               	clrf	view_log@rpos
  3709     0E96  01BD               	clrf	view_log@rpos+1
  3710     0E97  2EAF               	goto	l4981
  3711     0E98                     l4979:
  3712     0E98  300A               	movlw	10
  3713     0E99  00F3               	movwf	___awmod@divisor
  3714     0E9A  3000               	movlw	0
  3715     0E9B  00F4               	movwf	___awmod@divisor+1
  3716     0E9C  0866               	movf	_pos,w
  3717     0E9D  3E01               	addlw	1
  3718     0E9E  00F5               	movwf	___awmod@dividend
  3719     0E9F  0867               	movf	_pos+1,w
  3720     0EA0  1803               	skipnc
  3721     0EA1  3E01               	addlw	1
  3722     0EA2  3E00               	addlw	0
  3723     0EA3  00F6               	movwf	___awmod@dividend+1
  3724     0EA4  120A  158A  2193  120A  158A  	fcall	___awmod
  3725     0EA9  0874               	movf	?___awmod+1,w
  3726     0EAA  1283               	bcf	3,5	;RP0=0, select bank0
  3727     0EAB  1303               	bcf	3,6	;RP1=0, select bank0
  3728     0EAC  00BD               	movwf	view_log@rpos+1
  3729     0EAD  0873               	movf	?___awmod,w
  3730     0EAE  00BC               	movwf	view_log@rpos
  3731     0EAF                     l4981:
  3732                           
  3733                           ;display.c: 263:             clcd_print("                 ", (0xC0 + 0)) ;
  3734     0EAF  3037               	movlw	55
  3735     0EB0  0637               	xorwf	view_log@key,w
  3736     0EB1  1D03               	btfss	3,2
  3737     0EB2  2EB4               	goto	u4571
  3738     0EB3  2EB5               	goto	u4570
  3739     0EB4                     u4571:
  3740     0EB4  2ED7               	goto	l4989
  3741     0EB5                     u4570:
  3742     0EB5                     l4983:
  3743     0EB5  0852               	movf	view_log@shift+1,w
  3744     0EB6  3A80               	xorlw	128
  3745     0EB7  00AA               	movwf	??_view_log
  3746     0EB8  0865               	movf	_access+1,w
  3747     0EB9  3A80               	xorlw	128
  3748     0EBA  022A               	subwf	??_view_log,w
  3749     0EBB  1D03               	skipz
  3750     0EBC  2EBF               	goto	u4585
  3751     0EBD  0864               	movf	_access,w
  3752     0EBE  0251               	subwf	view_log@shift,w
  3753     0EBF                     u4585:
  3754     0EBF  1803               	skipnc
  3755     0EC0  2EC2               	goto	u4581
  3756     0EC1  2EC3               	goto	u4580
  3757     0EC2                     u4581:
  3758     0EC2  2ED7               	goto	l4989
  3759     0EC3                     u4580:
  3760     0EC3                     l4985:
  3761                           
  3762                           ;display.c: 264:         };display.c: 265: 
  3763     0EC3  3001               	movlw	1
  3764     0EC4  1283               	bcf	3,5	;RP0=0, select bank0
  3765     0EC5  1303               	bcf	3,6	;RP1=0, select bank0
  3766     0EC6  07D1               	addwf	view_log@shift,f
  3767     0EC7  1803               	skipnc
  3768     0EC8  0AD2               	incf	view_log@shift+1,f
  3769     0EC9  3000               	movlw	0
  3770     0ECA  07D2               	addwf	view_log@shift+1,f
  3771     0ECB                     l4987:
  3772                           
  3773                           ;display.c: 266:   rpos = (rpos + shift) % 10;
  3774     0ECB  3015               	movlw	low (STR_26| (0+32768))
  3775     0ECC  00A0               	movwf	clcd_print@str
  3776     0ECD  3088               	movlw	high (STR_26| (0+32768))
  3777     0ECE  00A1               	movwf	clcd_print@str+1
  3778     0ECF  30C0               	movlw	192
  3779     0ED0  00A2               	movwf	clcd_print@addr
  3780     0ED1  160A  118A  225F  120A  158A  	fcall	_clcd_print
  3781                           
  3782                           ;display.c: 267: 
  3783     0ED6  2EFF               	goto	l4997
  3784     0ED7                     l4989:
  3785     0ED7  302F               	movlw	47
  3786     0ED8  1283               	bcf	3,5	;RP0=0, select bank0
  3787     0ED9  1303               	bcf	3,6	;RP1=0, select bank0
  3788     0EDA  0637               	xorwf	view_log@key,w
  3789     0EDB  1D03               	btfss	3,2
  3790     0EDC  2EDE               	goto	u4591
  3791     0EDD  2EDF               	goto	u4590
  3792     0EDE                     u4591:
  3793     0EDE  2EFF               	goto	l4997
  3794     0EDF                     u4590:
  3795     0EDF                     l4991:
  3796     0EDF  0852               	movf	view_log@shift+1,w
  3797     0EE0  3A80               	xorlw	128
  3798     0EE1  00FF               	movwf	btemp+1
  3799     0EE2  3080               	movlw	128
  3800     0EE3  027F               	subwf	btemp+1,w
  3801     0EE4  1D03               	skipz
  3802     0EE5  2EE8               	goto	u4605
  3803     0EE6  3001               	movlw	1
  3804     0EE7  0251               	subwf	view_log@shift,w
  3805     0EE8                     u4605:
  3806     0EE8  1C03               	skipc
  3807     0EE9  2EEB               	goto	u4601
  3808     0EEA  2EEC               	goto	u4600
  3809     0EEB                     u4601:
  3810     0EEB  2EFF               	goto	l4997
  3811     0EEC                     u4600:
  3812     0EEC                     l4993:
  3813                           
  3814                           ;display.c: 269:   {;display.c: 270:    add = rpos * 10 + 5 + i ;
  3815     0EEC  30FF               	movlw	255
  3816     0EED  1283               	bcf	3,5	;RP0=0, select bank0
  3817     0EEE  1303               	bcf	3,6	;RP1=0, select bank0
  3818     0EEF  07D1               	addwf	view_log@shift,f
  3819     0EF0  1803               	skipnc
  3820     0EF1  0AD2               	incf	view_log@shift+1,f
  3821     0EF2  30FF               	movlw	255
  3822     0EF3  07D2               	addwf	view_log@shift+1,f
  3823     0EF4                     l4995:
  3824                           
  3825                           ;display.c: 271:    rlog[i] = ext_eeprom_24C02_read(add);
  3826     0EF4  3015               	movlw	low (STR_26| (0+32768))
  3827     0EF5  00A0               	movwf	clcd_print@str
  3828     0EF6  3088               	movlw	high (STR_26| (0+32768))
  3829     0EF7  00A1               	movwf	clcd_print@str+1
  3830     0EF8  30C0               	movlw	192
  3831     0EF9  00A2               	movwf	clcd_print@addr
  3832     0EFA  160A  118A  225F  120A  158A  	fcall	_clcd_print
  3833     0EFF                     l4997:
  3834                           
  3835                           ;display.c: 274:   clcd_putch ( shift + '0' , (0xC0 + 0));
  3836     0EFF  300A               	movlw	10
  3837     0F00  00F3               	movwf	___awmod@divisor
  3838     0F01  3000               	movlw	0
  3839     0F02  00F4               	movwf	___awmod@divisor+1
  3840     0F03  1283               	bcf	3,5	;RP0=0, select bank0
  3841     0F04  1303               	bcf	3,6	;RP1=0, select bank0
  3842     0F05  0851               	movf	view_log@shift,w
  3843     0F06  073C               	addwf	view_log@rpos,w
  3844     0F07  00F5               	movwf	___awmod@dividend
  3845     0F08  0852               	movf	view_log@shift+1,w
  3846     0F09  1803               	skipnc
  3847     0F0A  0A52               	incf	view_log@shift+1,w
  3848     0F0B  073D               	addwf	view_log@rpos+1,w
  3849     0F0C  00F6               	movwf	___awmod@dividend+1
  3850     0F0D  120A  158A  2193  120A  158A  	fcall	___awmod
  3851     0F12  0874               	movf	?___awmod+1,w
  3852     0F13  1283               	bcf	3,5	;RP0=0, select bank0
  3853     0F14  1303               	bcf	3,6	;RP1=0, select bank0
  3854     0F15  00BD               	movwf	view_log@rpos+1
  3855     0F16  0873               	movf	?___awmod,w
  3856     0F17  00BC               	movwf	view_log@rpos
  3857     0F18                     l4999:
  3858                           
  3859                           ;display.c: 276:   clcd_putch ( rlog[1] , (0xC0 + 3));
  3860     0F18  01BE               	clrf	view_log@i
  3861     0F19  01BF               	clrf	view_log@i+1
  3862     0F1A                     l5005:
  3863                           
  3864                           ;display.c: 277:   clcd_putch ( ':' , (0xC0 + 4));;display.c: 278:   clcd_putch ( rlog[2
      +                          ] , (0xC0 + 5));
  3865     0F1A  300A               	movlw	10
  3866     0F1B  00F3               	movwf	___bmul@multiplicand
  3867     0F1C  1283               	bcf	3,5	;RP0=0, select bank0
  3868     0F1D  1303               	bcf	3,6	;RP1=0, select bank0
  3869     0F1E  083C               	movf	view_log@rpos,w
  3870     0F1F  160A  118A  206D  120A  158A  	fcall	___bmul
  3871     0F24  1283               	bcf	3,5	;RP0=0, select bank0
  3872     0F25  1303               	bcf	3,6	;RP1=0, select bank0
  3873     0F26  073E               	addwf	view_log@i,w
  3874     0F27  3E05               	addlw	5
  3875     0F28  00B6               	movwf	view_log@add
  3876     0F29                     l5007:
  3877                           
  3878                           ;display.c: 279:   clcd_putch ( rlog[3] , (0xC0 + 6));
  3879     0F29  083E               	movf	view_log@i,w
  3880     0F2A  3E2B               	addlw	(low (view_log@rlog| 0))& (0+255)
  3881     0F2B  0084               	movwf	4
  3882     0F2C  0836               	movf	view_log@add,w
  3883     0F2D  160A  118A  21D8  120A  158A  	fcall	_ext_eeprom_24C02_read
  3884     0F32  1383               	bcf	3,7	;select IRP bank0
  3885     0F33  0080               	movwf	0
  3886     0F34                     l5009:
  3887                           
  3888                           ;display.c: 280:   clcd_putch ( ':' , (0xC0 + 7));
  3889     0F34  3001               	movlw	1
  3890     0F35  1283               	bcf	3,5	;RP0=0, select bank0
  3891     0F36  1303               	bcf	3,6	;RP1=0, select bank0
  3892     0F37  07BE               	addwf	view_log@i,f
  3893     0F38  1803               	skipnc
  3894     0F39  0ABF               	incf	view_log@i+1,f
  3895     0F3A  3000               	movlw	0
  3896     0F3B  07BF               	addwf	view_log@i+1,f
  3897     0F3C                     l5011:
  3898     0F3C  083F               	movf	view_log@i+1,w
  3899     0F3D  3A80               	xorlw	128
  3900     0F3E  00FF               	movwf	btemp+1
  3901     0F3F  3080               	movlw	128
  3902     0F40  027F               	subwf	btemp+1,w
  3903     0F41  1D03               	skipz
  3904     0F42  2F45               	goto	u4615
  3905     0F43  300A               	movlw	10
  3906     0F44  023E               	subwf	view_log@i,w
  3907     0F45                     u4615:
  3908     0F45  1C03               	skipc
  3909     0F46  2F48               	goto	u4611
  3910     0F47  2F49               	goto	u4610
  3911     0F48                     u4611:
  3912     0F48  2F1A               	goto	l5005
  3913     0F49                     u4610:
  3914     0F49                     l5013:
  3915                           
  3916                           ;display.c: 282:   clcd_putch ( rlog[5] , (0xC0 + 9));
  3917     0F49  30C0               	movlw	192
  3918     0F4A  1283               	bcf	3,5	;RP0=0, select bank0
  3919     0F4B  1303               	bcf	3,6	;RP1=0, select bank0
  3920     0F4C  00A7               	movwf	clcd_putch@addr
  3921     0F4D  0851               	movf	view_log@shift,w
  3922     0F4E  3E30               	addlw	48
  3923     0F4F  160A  118A  2058  120A  158A  	fcall	_clcd_putch
  3924                           
  3925                           ;display.c: 283:   clcd_putch ( rlog[6] , (0xC0 + 11));
  3926     0F54  30C2               	movlw	194
  3927     0F55  1283               	bcf	3,5	;RP0=0, select bank0
  3928     0F56  1303               	bcf	3,6	;RP1=0, select bank0
  3929     0F57  00A7               	movwf	clcd_putch@addr
  3930     0F58  082B               	movf	view_log@rlog,w
  3931     0F59  160A  118A  2058  120A  158A  	fcall	_clcd_putch
  3932                           
  3933                           ;display.c: 284:   clcd_putch ( rlog[7] , (0xC0 + 12));
  3934     0F5E  30C3               	movlw	195
  3935     0F5F  1283               	bcf	3,5	;RP0=0, select bank0
  3936     0F60  1303               	bcf	3,6	;RP1=0, select bank0
  3937     0F61  00A7               	movwf	clcd_putch@addr
  3938     0F62  082C               	movf	view_log@rlog+1,w
  3939     0F63  160A  118A  2058  120A  158A  	fcall	_clcd_putch
  3940                           
  3941                           ;display.c: 285:   clcd_putch ( rlog[8] , (0xC0 + 14));
  3942     0F68  30C4               	movlw	196
  3943     0F69  1283               	bcf	3,5	;RP0=0, select bank0
  3944     0F6A  1303               	bcf	3,6	;RP1=0, select bank0
  3945     0F6B  00A7               	movwf	clcd_putch@addr
  3946     0F6C  303A               	movlw	58
  3947     0F6D  160A  118A  2058  120A  158A  	fcall	_clcd_putch
  3948                           
  3949                           ;display.c: 286:   clcd_putch ( rlog[9] , (0xC0 + 15));
  3950     0F72  30C5               	movlw	197
  3951     0F73  1283               	bcf	3,5	;RP0=0, select bank0
  3952     0F74  1303               	bcf	3,6	;RP1=0, select bank0
  3953     0F75  00A7               	movwf	clcd_putch@addr
  3954     0F76  082D               	movf	view_log@rlog+2,w
  3955     0F77  160A  118A  2058  120A  158A  	fcall	_clcd_putch
  3956                           
  3957                           ;display.c: 287:         for(unsigned long int i =0;i < 20000;i++);
  3958     0F7C  30C6               	movlw	198
  3959     0F7D  1283               	bcf	3,5	;RP0=0, select bank0
  3960     0F7E  1303               	bcf	3,6	;RP1=0, select bank0
  3961     0F7F  00A7               	movwf	clcd_putch@addr
  3962     0F80  082E               	movf	view_log@rlog+3,w
  3963     0F81  160A  118A  2058  120A  158A  	fcall	_clcd_putch
  3964                           
  3965                           ;display.c: 288:         clcd_write(0x0C, 0);
  3966     0F86  30C7               	movlw	199
  3967     0F87  1283               	bcf	3,5	;RP0=0, select bank0
  3968     0F88  1303               	bcf	3,6	;RP1=0, select bank0
  3969     0F89  00A7               	movwf	clcd_putch@addr
  3970     0F8A  303A               	movlw	58
  3971     0F8B  160A  118A  2058  120A  158A  	fcall	_clcd_putch
  3972                           
  3973                           ;display.c: 289:  }
  3974     0F90  30C8               	movlw	200
  3975     0F91  1283               	bcf	3,5	;RP0=0, select bank0
  3976     0F92  1303               	bcf	3,6	;RP1=0, select bank0
  3977     0F93  00A7               	movwf	clcd_putch@addr
  3978     0F94  082F               	movf	view_log@rlog+4,w
  3979     0F95  160A  118A  2058  120A  158A  	fcall	_clcd_putch
  3980                           
  3981                           ;display.c: 290: }
  3982     0F9A  30C9               	movlw	201
  3983     0F9B  1283               	bcf	3,5	;RP0=0, select bank0
  3984     0F9C  1303               	bcf	3,6	;RP1=0, select bank0
  3985     0F9D  00A7               	movwf	clcd_putch@addr
  3986     0F9E  0830               	movf	view_log@rlog+5,w
  3987     0F9F  160A  118A  2058  120A  158A  	fcall	_clcd_putch
  3988                           
  3989                           ;display.c: 291: 
  3990     0FA4  30CB               	movlw	203
  3991     0FA5  1283               	bcf	3,5	;RP0=0, select bank0
  3992     0FA6  1303               	bcf	3,6	;RP1=0, select bank0
  3993     0FA7  00A7               	movwf	clcd_putch@addr
  3994     0FA8  0831               	movf	view_log@rlog+6,w
  3995     0FA9  160A  118A  2058  120A  158A  	fcall	_clcd_putch
  3996                           
  3997                           ;display.c: 292: 
  3998     0FAE  30CC               	movlw	204
  3999     0FAF  1283               	bcf	3,5	;RP0=0, select bank0
  4000     0FB0  1303               	bcf	3,6	;RP1=0, select bank0
  4001     0FB1  00A7               	movwf	clcd_putch@addr
  4002     0FB2  0832               	movf	view_log@rlog+7,w
  4003     0FB3  160A  118A  2058  120A  158A  	fcall	_clcd_putch
  4004                           
  4005                           ;display.c: 293: char clear_log (char reset_memory)
  4006     0FB8  30CE               	movlw	206
  4007     0FB9  1283               	bcf	3,5	;RP0=0, select bank0
  4008     0FBA  1303               	bcf	3,6	;RP1=0, select bank0
  4009     0FBB  00A7               	movwf	clcd_putch@addr
  4010     0FBC  0833               	movf	view_log@rlog+8,w
  4011     0FBD  160A  118A  2058  120A  158A  	fcall	_clcd_putch
  4012                           
  4013                           ;display.c: 294: {
  4014     0FC2  30CF               	movlw	207
  4015     0FC3  1283               	bcf	3,5	;RP0=0, select bank0
  4016     0FC4  1303               	bcf	3,6	;RP1=0, select bank0
  4017     0FC5  00A7               	movwf	clcd_putch@addr
  4018     0FC6  0834               	movf	view_log@rlog+9,w
  4019     0FC7  160A  118A  2058  120A  158A  	fcall	_clcd_putch
  4020     0FCC                     l5015:
  4021                           
  4022                           ;display.c: 295:  clcd_print( "Logs cleared",(0x80 + 2));
  4023     0FCC  3000               	movlw	0
  4024     0FCD  1283               	bcf	3,5	;RP0=0, select bank0
  4025     0FCE  1303               	bcf	3,6	;RP1=0, select bank0
  4026     0FCF  00BB               	movwf	view_log@i_385+3
  4027     0FD0  3000               	movlw	0
  4028     0FD1  00BA               	movwf	view_log@i_385+2
  4029     0FD2  3000               	movlw	0
  4030     0FD3  00B9               	movwf	view_log@i_385+1
  4031     0FD4  3000               	movlw	0
  4032     0FD5  00B8               	movwf	view_log@i_385
  4033     0FD6                     l5021:
  4034     0FD6  3001               	movlw	1
  4035     0FD7  1283               	bcf	3,5	;RP0=0, select bank0
  4036     0FD8  1303               	bcf	3,6	;RP1=0, select bank0
  4037     0FD9  07B8               	addwf	view_log@i_385,f
  4038     0FDA  3000               	movlw	0
  4039     0FDB  1803               	skipnc
  4040     0FDC  3001               	movlw	1
  4041     0FDD  07B9               	addwf	view_log@i_385+1,f
  4042     0FDE  3000               	movlw	0
  4043     0FDF  1803               	skipnc
  4044     0FE0  3001               	movlw	1
  4045     0FE1  07BA               	addwf	view_log@i_385+2,f
  4046     0FE2  3000               	movlw	0
  4047     0FE3  1803               	skipnc
  4048     0FE4  3001               	movlw	1
  4049     0FE5  07BB               	addwf	view_log@i_385+3,f
  4050     0FE6                     l5023:
  4051     0FE6  083B               	movf	view_log@i_385+3,w
  4052     0FE7  1D03               	btfss	3,2
  4053     0FE8  2FF8               	goto	u4620
  4054     0FE9  083A               	movf	view_log@i_385+2,w
  4055     0FEA  1D03               	btfss	3,2
  4056     0FEB  2FF8               	goto	u4620
  4057     0FEC  304E               	movlw	78
  4058     0FED  0239               	subwf	view_log@i_385+1,w
  4059     0FEE  1D03               	skipz
  4060     0FEF  2FF4               	goto	u4623
  4061     0FF0  3020               	movlw	32
  4062     0FF1  0238               	subwf	view_log@i_385,w
  4063     0FF2  1D03               	skipz
  4064     0FF3  2FF4               	goto	u4623
  4065     0FF4                     u4623:
  4066     0FF4  1C03               	btfss	3,0
  4067     0FF5  2FF7               	goto	u4621
  4068     0FF6  2FF8               	goto	u4620
  4069     0FF7                     u4621:
  4070     0FF7  2FD6               	goto	l5021
  4071     0FF8                     u4620:
  4072     0FF8                     l5025:
  4073                           
  4074                           ;display.c: 296:  clcd_print( "successfully", (0xC0 + 2));
  4075     0FF8  01F3               	clrf	clcd_write@mode
  4076     0FF9  300C               	movlw	12
  4077     0FFA  160A  118A  22C6  120A  158A  	fcall	_clcd_write
  4078     0FFF                     l373:
  4079     0FFF  0008               	return
  4080     1000                     __end_of_view_log:
  4081                           
  4082                           	psect	text2
  4083     1115                     __ptext2:	
  4084 ;; *************** function _strcpy *****************
  4085 ;; Defined at:
  4086 ;;		line 3 in file "C:\Program Files\Microchip\xc8\v2.45\pic\sources\c99\common\strcpy.c"
  4087 ;; Parameters:    Size  Location     Type
  4088 ;;  dest            1    wreg     PTR unsigned char 
  4089 ;;		 -> main@event(3), 
  4090 ;;  src             2    3[COMMON] PTR const unsigned char 
  4091 ;;		 -> STR_7(3), STR_6(3), STR_5(3), STR_4(3), 
  4092 ;;		 -> STR_3(3), STR_2(3), STR_1(3), 
  4093 ;; Auto vars:     Size  Location     Type
  4094 ;;  dest            1    8[COMMON] PTR unsigned char 
  4095 ;;		 -> main@event(3), 
  4096 ;;  d               1    7[COMMON] PTR unsigned char 
  4097 ;;		 -> main@event(3), 
  4098 ;; Return value:  Size  Location     Type
  4099 ;;                  1    wreg      PTR unsigned char 
  4100 ;; Registers used:
  4101 ;;		wreg, fsr0l, fsr0h, status,2, status,0, btemp+1, pclath
  4102 ;; Tracked objects:
  4103 ;;		On entry : 0/0
  4104 ;;		On exit  : 0/0
  4105 ;;		Unchanged: 0/0
  4106 ;; Data sizes:     COMMON   BANK0   BANK1   BANK3   BANK2
  4107 ;;      Params:         2       0       0       0       0
  4108 ;;      Locals:         2       0       0       0       0
  4109 ;;      Temps:          2       0       0       0       0
  4110 ;;      Totals:         6       0       0       0       0
  4111 ;;Total ram usage:        6 bytes
  4112 ;; Hardware stack levels used: 2
  4113 ;; Hardware stack levels required when called: 1
  4114 ;; This function calls:
  4115 ;;		Nothing
  4116 ;; This function is called by:
  4117 ;;		_main
  4118 ;; This function uses a non-reentrant model
  4119 ;;
  4120                           
  4121     1115                     _strcpy:	
  4122                           ;psect for function _strcpy
  4123                           
  4124                           
  4125                           ;incstack = 0
  4126                           ; Regs used in _strcpy: [wreg-fsr0h+status,2+status,0+btemp+1+pclath]
  4127                           ;strcpy@dest stored from wreg
  4128     1115  00F8               	movwf	strcpy@dest
  4129     1116                     l4751:
  4130     1116  0878               	movf	strcpy@dest,w
  4131     1117  00F7               	movwf	strcpy@d
  4132     1118                     l4753:
  4133     1118  0874               	movf	strcpy@src+1,w
  4134     1119  00F6               	movwf	??_strcpy+1
  4135     111A  0873               	movf	strcpy@src,w
  4136     111B  00F5               	movwf	??_strcpy
  4137     111C  0AF3               	incf	strcpy@src,f
  4138     111D  1903               	skipnz
  4139     111E  0AF4               	incf	strcpy@src+1,f
  4140     111F  0876               	movf	??_strcpy+1,w
  4141     1120  1283               	bcf	3,5	;RP0=0, select bank0
  4142     1121  1303               	bcf	3,6	;RP1=0, select bank0
  4143     1122  00FF               	movwf	btemp+1
  4144     1123  0875               	movf	??_strcpy,w
  4145     1124  0084               	movwf	4
  4146     1125  160A  118A  2000  160A  118A  	fcall	stringtab
  4147     112A  00FF               	movwf	btemp+1
  4148     112B  0877               	movf	strcpy@d,w
  4149     112C  0084               	movwf	4
  4150     112D  3001               	movlw	1
  4151     112E  07F7               	addwf	strcpy@d,f
  4152     112F  087F               	movf	btemp+1,w
  4153     1130  1383               	bcf	3,7	;select IRP bank0
  4154     1131  0080               	movwf	0
  4155     1132  0800               	movf	0,w
  4156     1133  1D03               	btfss	3,2
  4157     1134  2936               	goto	u4301
  4158     1135  2937               	goto	u4300
  4159     1136                     u4301:
  4160     1136  2918               	goto	l4753
  4161     1137                     u4300:
  4162     1137                     l1114:
  4163     1137  0008               	return
  4164     1138                     __end_of_strcpy:
  4165                           
  4166                           	psect	text3
  4167     0730                     __ptext3:	
  4168 ;; *************** function _read_digital_keypad *****************
  4169 ;; Defined at:
  4170 ;;		line 14 in file "digital_keypad.c"
  4171 ;; Parameters:    Size  Location     Type
  4172 ;;		None
  4173 ;; Auto vars:     Size  Location     Type
  4174 ;;  key             1    3[COMMON] unsigned char 
  4175 ;; Return value:  Size  Location     Type
  4176 ;;                  1    wreg      unsigned char 
  4177 ;; Registers used:
  4178 ;;		wreg, status,2, status,0, btemp+1
  4179 ;; Tracked objects:
  4180 ;;		On entry : 0/0
  4181 ;;		On exit  : 0/0
  4182 ;;		Unchanged: 0/0
  4183 ;; Data sizes:     COMMON   BANK0   BANK1   BANK3   BANK2
  4184 ;;      Params:         0       0       0       0       0
  4185 ;;      Locals:         1       0       0       0       0
  4186 ;;      Temps:          0       0       0       0       0
  4187 ;;      Totals:         1       0       0       0       0
  4188 ;;Total ram usage:        1 bytes
  4189 ;; Hardware stack levels used: 1
  4190 ;; Hardware stack levels required when called: 1
  4191 ;; This function calls:
  4192 ;;		Nothing
  4193 ;; This function is called by:
  4194 ;;		_main
  4195 ;; This function uses a non-reentrant model
  4196 ;;
  4197                           
  4198     0730                     _read_digital_keypad:	
  4199                           ;psect for function _read_digital_keypad
  4200                           
  4201     0730                     l4695:	
  4202                           ;incstack = 0
  4203                           ; Regs used in _read_digital_keypad: [wreg+status,2+status,0+btemp+1]
  4204                           
  4205                           
  4206                           ;digital_keypad.c: 16:   longpressed = 0 ;;digital_keypad.c: 17:   pre_key = key;;digita
      +                          l_keypad.c: 18:  };digital_keypad.c: 19:  else if( key == 0x3F && once )
  4207     0730  1283               	bcf	3,5	;RP0=0, select bank0
  4208     0731  1303               	bcf	3,6	;RP1=0, select bank0
  4209     0732  0806               	movf	6,w	;volatile
  4210     0733  393F               	andlw	63
  4211     0734  00F3               	movwf	read_digital_keypad@key
  4212     0735                     l4697:
  4213                           
  4214                           ;digital_keypad.c: 20:  {
  4215     0735  303F               	movlw	63
  4216     0736  0673               	xorwf	read_digital_keypad@key,w
  4217     0737  1903               	btfsc	3,2
  4218     0738  2F3A               	goto	u4171
  4219     0739  2F3B               	goto	u4170
  4220     073A                     u4171:
  4221     073A  2F47               	goto	l4707
  4222     073B                     u4170:
  4223     073B                     l4699:
  4224     073B  087A               	movf	read_digital_keypad@once,w
  4225     073C  1D03               	btfss	3,2
  4226     073D  2F3F               	goto	u4181
  4227     073E  2F40               	goto	u4180
  4228     073F                     u4181:
  4229     073F  2F47               	goto	l4707
  4230     0740                     u4180:
  4231     0740                     l4701:
  4232                           
  4233                           ;digital_keypad.c: 21:   once = 0;;digital_keypad.c: 22:   if ( longpressed < 30 )
  4234     0740  01FA               	clrf	read_digital_keypad@once
  4235     0741  0AFA               	incf	read_digital_keypad@once,f
  4236     0742                     l4703:
  4237                           
  4238                           ;digital_keypad.c: 23:   return pre_key ;
  4239     0742  01E0               	clrf	read_digital_keypad@longpressed
  4240     0743  01E1               	clrf	read_digital_keypad@longpressed+1
  4241     0744                     l4705:
  4242                           
  4243                           ;digital_keypad.c: 24:  }
  4244     0744  0873               	movf	read_digital_keypad@key,w
  4245     0745  00F9               	movwf	read_digital_keypad@pre_key
  4246                           
  4247                           ;digital_keypad.c: 25:  else if (once && longpressed <= 30 )
  4248     0746  2FB5               	goto	l4747
  4249     0747                     l4707:
  4250     0747  303F               	movlw	63
  4251     0748  0673               	xorwf	read_digital_keypad@key,w
  4252     0749  1D03               	btfss	3,2
  4253     074A  2F4C               	goto	u4191
  4254     074B  2F4D               	goto	u4190
  4255     074C                     u4191:
  4256     074C  2F62               	goto	l4719
  4257     074D                     u4190:
  4258     074D                     l4709:
  4259     074D  087A               	movf	read_digital_keypad@once,w
  4260     074E  1903               	btfsc	3,2
  4261     074F  2F51               	goto	u4201
  4262     0750  2F52               	goto	u4200
  4263     0751                     u4201:
  4264     0751  2F62               	goto	l4719
  4265     0752                     u4200:
  4266     0752                     l4711:
  4267                           
  4268                           ;digital_keypad.c: 27:  else if ( once && longpressed == 31 && key == 0x37);digital_keyp
      +                          ad.c: 28:  {
  4269     0752  01FA               	clrf	read_digital_keypad@once
  4270     0753                     l4713:
  4271                           
  4272                           ;digital_keypad.c: 29:   longpressed ++;
  4273     0753  0861               	movf	read_digital_keypad@longpressed+1,w
  4274     0754  3A80               	xorlw	128
  4275     0755  00FF               	movwf	btemp+1
  4276     0756  3080               	movlw	128
  4277     0757  027F               	subwf	btemp+1,w
  4278     0758  1D03               	skipz
  4279     0759  2F5C               	goto	u4215
  4280     075A  301E               	movlw	30
  4281     075B  0260               	subwf	read_digital_keypad@longpressed,w
  4282     075C                     u4215:
  4283     075C  1803               	skipnc
  4284     075D  2F5F               	goto	u4211
  4285     075E  2F60               	goto	u4210
  4286     075F                     u4211:
  4287     075F  2FB5               	goto	l4747
  4288     0760                     u4210:
  4289     0760                     l4715:
  4290                           
  4291                           ;digital_keypad.c: 30:   return 0x11;
  4292     0760  0879               	movf	read_digital_keypad@pre_key,w
  4293     0761  2FB6               	goto	l493
  4294     0762                     l4719:
  4295     0762  087A               	movf	read_digital_keypad@once,w
  4296     0763  1903               	btfsc	3,2
  4297     0764  2F66               	goto	u4221
  4298     0765  2F67               	goto	u4220
  4299     0766                     u4221:
  4300     0766  2F7D               	goto	l4725
  4301     0767                     u4220:
  4302     0767                     l4721:
  4303     0767  0861               	movf	read_digital_keypad@longpressed+1,w
  4304     0768  3A80               	xorlw	128
  4305     0769  00FF               	movwf	btemp+1
  4306     076A  3080               	movlw	128
  4307     076B  027F               	subwf	btemp+1,w
  4308     076C  1D03               	skipz
  4309     076D  2F70               	goto	u4235
  4310     076E  301F               	movlw	31
  4311     076F  0260               	subwf	read_digital_keypad@longpressed,w
  4312     0770                     u4235:
  4313     0770  1803               	skipnc
  4314     0771  2F73               	goto	u4231
  4315     0772  2F74               	goto	u4230
  4316     0773                     u4231:
  4317     0773  2F7D               	goto	l4725
  4318     0774                     u4230:
  4319     0774                     l4723:
  4320                           
  4321                           ;digital_keypad.c: 33:  {
  4322     0774  3001               	movlw	1
  4323     0775  1283               	bcf	3,5	;RP0=0, select bank0
  4324     0776  1303               	bcf	3,6	;RP1=0, select bank0
  4325     0777  07E0               	addwf	read_digital_keypad@longpressed,f
  4326     0778  1803               	skipnc
  4327     0779  0AE1               	incf	read_digital_keypad@longpressed+1,f
  4328     077A  3000               	movlw	0
  4329     077B  07E1               	addwf	read_digital_keypad@longpressed+1,f
  4330     077C  2FB5               	goto	l4747
  4331     077D                     l4725:
  4332     077D  087A               	movf	read_digital_keypad@once,w
  4333     077E  1903               	btfsc	3,2
  4334     077F  2F81               	goto	u4241
  4335     0780  2F82               	goto	u4240
  4336     0781                     u4241:
  4337     0781  2F99               	goto	l4737
  4338     0782                     u4240:
  4339     0782                     l4727:
  4340     0782  301F               	movlw	31
  4341     0783  1283               	bcf	3,5	;RP0=0, select bank0
  4342     0784  1303               	bcf	3,6	;RP1=0, select bank0
  4343     0785  0660               	xorwf	read_digital_keypad@longpressed,w
  4344     0786  0461               	iorwf	read_digital_keypad@longpressed+1,w
  4345     0787  1D03               	btfss	3,2
  4346     0788  2F8A               	goto	u4251
  4347     0789  2F8B               	goto	u4250
  4348     078A                     u4251:
  4349     078A  2F99               	goto	l4737
  4350     078B                     u4250:
  4351     078B                     l4729:
  4352     078B  3037               	movlw	55
  4353     078C  0673               	xorwf	read_digital_keypad@key,w
  4354     078D  1D03               	btfss	3,2
  4355     078E  2F90               	goto	u4261
  4356     078F  2F91               	goto	u4260
  4357     0790                     u4261:
  4358     0790  2F99               	goto	l4737
  4359     0791                     u4260:
  4360     0791                     l4731:
  4361                           
  4362                           ;digital_keypad.c: 35:   return 0x22;;digital_keypad.c: 36:  }
  4363     0791  3001               	movlw	1
  4364     0792  07E0               	addwf	read_digital_keypad@longpressed,f
  4365     0793  1803               	skipnc
  4366     0794  0AE1               	incf	read_digital_keypad@longpressed+1,f
  4367     0795  3000               	movlw	0
  4368     0796  07E1               	addwf	read_digital_keypad@longpressed+1,f
  4369                           
  4370                           ;digital_keypad.c: 37:  return 0x3F;
  4371     0797  3011               	movlw	17
  4372     0798  2FB6               	goto	l493
  4373     0799                     l4737:
  4374     0799  087A               	movf	read_digital_keypad@once,w
  4375     079A  1903               	btfsc	3,2
  4376     079B  2F9D               	goto	u4271
  4377     079C  2F9E               	goto	u4270
  4378     079D                     u4271:
  4379     079D  2FB5               	goto	l4747
  4380     079E                     u4270:
  4381     079E                     l4739:
  4382     079E  301F               	movlw	31
  4383     079F  1283               	bcf	3,5	;RP0=0, select bank0
  4384     07A0  1303               	bcf	3,6	;RP1=0, select bank0
  4385     07A1  0660               	xorwf	read_digital_keypad@longpressed,w
  4386     07A2  0461               	iorwf	read_digital_keypad@longpressed+1,w
  4387     07A3  1D03               	btfss	3,2
  4388     07A4  2FA6               	goto	u4281
  4389     07A5  2FA7               	goto	u4280
  4390     07A6                     u4281:
  4391     07A6  2FB5               	goto	l4747
  4392     07A7                     u4280:
  4393     07A7                     l4741:
  4394     07A7  302F               	movlw	47
  4395     07A8  0673               	xorwf	read_digital_keypad@key,w
  4396     07A9  1D03               	btfss	3,2
  4397     07AA  2FAC               	goto	u4291
  4398     07AB  2FAD               	goto	u4290
  4399     07AC                     u4291:
  4400     07AC  2FB5               	goto	l4747
  4401     07AD                     u4290:
  4402     07AD                     l4743:
  4403     07AD  3001               	movlw	1
  4404     07AE  07E0               	addwf	read_digital_keypad@longpressed,f
  4405     07AF  1803               	skipnc
  4406     07B0  0AE1               	incf	read_digital_keypad@longpressed+1,f
  4407     07B1  3000               	movlw	0
  4408     07B2  07E1               	addwf	read_digital_keypad@longpressed+1,f
  4409     07B3  3022               	movlw	34
  4410     07B4  2FB6               	goto	l493
  4411     07B5                     l4747:
  4412     07B5  303F               	movlw	63
  4413     07B6                     l493:
  4414     07B6  0008               	return
  4415     07B7                     __end_of_read_digital_keypad:
  4416                           
  4417                           	psect	text4
  4418     1020                     __ptext4:	
  4419 ;; *************** function _read_adc *****************
  4420 ;; Defined at:
  4421 ;;		line 14 in file "adc.c"
  4422 ;; Parameters:    Size  Location     Type
  4423 ;;		None
  4424 ;; Auto vars:     Size  Location     Type
  4425 ;;  adc_reg_val     2    5[COMMON] unsigned short 
  4426 ;; Return value:  Size  Location     Type
  4427 ;;                  2    3[COMMON] unsigned short 
  4428 ;; Registers used:
  4429 ;;		wreg
  4430 ;; Tracked objects:
  4431 ;;		On entry : 0/0
  4432 ;;		On exit  : 0/0
  4433 ;;		Unchanged: 0/0
  4434 ;; Data sizes:     COMMON   BANK0   BANK1   BANK3   BANK2
  4435 ;;      Params:         2       0       0       0       0
  4436 ;;      Locals:         2       0       0       0       0
  4437 ;;      Temps:          0       0       0       0       0
  4438 ;;      Totals:         4       0       0       0       0
  4439 ;;Total ram usage:        4 bytes
  4440 ;; Hardware stack levels used: 1
  4441 ;; Hardware stack levels required when called: 1
  4442 ;; This function calls:
  4443 ;;		Nothing
  4444 ;; This function is called by:
  4445 ;;		_main
  4446 ;; This function uses a non-reentrant model
  4447 ;;
  4448                           
  4449     1020                     _read_adc:	
  4450                           ;psect for function _read_adc
  4451                           
  4452     1020                     l4689:	
  4453                           ;incstack = 0
  4454                           ; Regs used in _read_adc: [wreg]
  4455                           
  4456                           
  4457                           ;adc.c: 16:     unsigned short adc_reg_val;;adc.c: 19:     GO = 1;
  4458     1020  1283               	bcf	3,5	;RP0=0, select bank0
  4459     1021  1303               	bcf	3,6	;RP1=0, select bank0
  4460     1022  151F               	bsf	31,2	;volatile
  4461     1023                     l138:	
  4462                           ;adc.c: 21:     while (nDONE);
  4463                           
  4464     1023  191F               	btfsc	31,2	;volatile
  4465     1024  2826               	goto	u4161
  4466     1025  2827               	goto	u4160
  4467     1026                     u4161:
  4468     1026  2823               	goto	l138
  4469     1027                     u4160:
  4470     1027                     l4691:
  4471                           
  4472                           ;adc.c: 23:     adc_reg_val = (ADRESH << 8) | ADRESL;
  4473     1027  081E               	movf	30,w	;volatile
  4474     1028  00F6               	movwf	read_adc@adc_reg_val+1
  4475     1029  1683               	bsf	3,5	;RP0=1, select bank1
  4476     102A  1303               	bcf	3,6	;RP1=0, select bank1
  4477     102B  081E               	movf	30,w	;volatile
  4478     102C  00F5               	movwf	read_adc@adc_reg_val
  4479                           
  4480                           ;adc.c: 27:     return adc_reg_val;
  4481     102D  0876               	movf	read_adc@adc_reg_val+1,w
  4482     102E  00F4               	movwf	?_read_adc+1
  4483     102F  0875               	movf	read_adc@adc_reg_val,w
  4484     1030  00F3               	movwf	?_read_adc
  4485     1031                     l141:
  4486     1031  0008               	return
  4487     1032                     __end_of_read_adc:
  4488                           
  4489                           	psect	text5
  4490     170F                     __ptext5:	
  4491 ;; *************** function _login_menu *****************
  4492 ;; Defined at:
  4493 ;;		line 199 in file "display.c"
  4494 ;; Parameters:    Size  Location     Type
  4495 ;;  key             1    wreg     unsigned char 
  4496 ;;  reset_flag      1    9[BANK0 ] unsigned char 
  4497 ;; Auto vars:     Size  Location     Type
  4498 ;;  key             1   12[BANK0 ] unsigned char 
  4499 ;; Return value:  Size  Location     Type
  4500 ;;                  1    wreg      unsigned char 
  4501 ;; Registers used:
  4502 ;;		wreg, fsr0l, fsr0h, status,2, status,0, btemp+1, pclath, cstack
  4503 ;; Tracked objects:
  4504 ;;		On entry : 0/0
  4505 ;;		On exit  : 0/0
  4506 ;;		Unchanged: 0/0
  4507 ;; Data sizes:     COMMON   BANK0   BANK1   BANK3   BANK2
  4508 ;;      Params:         0       1       0       0       0
  4509 ;;      Locals:         0       1       0       0       0
  4510 ;;      Temps:          0       2       0       0       0
  4511 ;;      Totals:         0       4       0       0       0
  4512 ;;Total ram usage:        4 bytes
  4513 ;; Hardware stack levels used: 1
  4514 ;; Hardware stack levels required when called: 3
  4515 ;; This function calls:
  4516 ;;		_clcd_print
  4517 ;;		_clcd_putch
  4518 ;;		_clcd_write
  4519 ;; This function is called by:
  4520 ;;		_main
  4521 ;; This function uses a non-reentrant model
  4522 ;;
  4523                           
  4524     170F                     _login_menu:	
  4525                           ;psect for function _login_menu
  4526                           
  4527                           
  4528                           ;incstack = 0
  4529                           ; Regs used in _login_menu: [wreg-fsr0h+status,2+status,0+btemp+1+pclath+cstack]
  4530                           ;login_menu@key stored from wreg
  4531     170F  1283               	bcf	3,5	;RP0=0, select bank0
  4532     1710  1303               	bcf	3,6	;RP1=0, select bank0
  4533     1711  00AC               	movwf	login_menu@key
  4534     1712                     l4917:
  4535                           
  4536                           ;display.c: 199:  };display.c: 200: ;display.c: 201:  if ( key == 0x37 && menu_pos < 4 )
      +                          ;display.c: 202:  {;display.c: 203:   menu_pos++;
  4537     1712  3005               	movlw	5
  4538     1713  0629               	xorwf	login_menu@reset_flag,w
  4539     1714  1D03               	btfss	3,2
  4540     1715  2F17               	goto	u4461
  4541     1716  2F18               	goto	u4460
  4542     1717                     u4461:
  4543     1717  2F1E               	goto	l4923
  4544     1718                     u4460:
  4545     1718                     l4919:
  4546                           
  4547                           ;display.c: 204:   if ( select_pos < 2 );display.c: 205:    select_pos++;
  4548     1718  01D3               	clrf	login_menu@menu_pos
  4549     1719  01D4               	clrf	login_menu@menu_pos+1
  4550     171A                     l4921:
  4551                           
  4552                           ;display.c: 206: 
  4553     171A  3001               	movlw	1
  4554     171B  00E2               	movwf	login_menu@select_pos
  4555     171C  3000               	movlw	0
  4556     171D  00E3               	movwf	login_menu@select_pos+1
  4557     171E                     l4923:
  4558                           
  4559                           ;display.c: 209: 
  4560     171E  3037               	movlw	55
  4561     171F  062C               	xorwf	login_menu@key,w
  4562     1720  1D03               	btfss	3,2
  4563     1721  2F23               	goto	u4471
  4564     1722  2F24               	goto	u4470
  4565     1723                     u4471:
  4566     1723  2F56               	goto	l4935
  4567     1724                     u4470:
  4568     1724                     l4925:
  4569     1724  0854               	movf	login_menu@menu_pos+1,w
  4570     1725  3A80               	xorlw	128
  4571     1726  00FF               	movwf	btemp+1
  4572     1727  3080               	movlw	128
  4573     1728  027F               	subwf	btemp+1,w
  4574     1729  1D03               	skipz
  4575     172A  2F2D               	goto	u4485
  4576     172B  3004               	movlw	4
  4577     172C  0253               	subwf	login_menu@menu_pos,w
  4578     172D                     u4485:
  4579     172D  1803               	skipnc
  4580     172E  2F30               	goto	u4481
  4581     172F  2F31               	goto	u4480
  4582     1730                     u4481:
  4583     1730  2F56               	goto	l4935
  4584     1731                     u4480:
  4585     1731                     l4927:
  4586                           
  4587                           ;display.c: 210:  else if( key == 0x2F && menu_pos > 0);display.c: 211:  {
  4588     1731  3001               	movlw	1
  4589     1732  1283               	bcf	3,5	;RP0=0, select bank0
  4590     1733  1303               	bcf	3,6	;RP1=0, select bank0
  4591     1734  07D3               	addwf	login_menu@menu_pos,f
  4592     1735  1803               	skipnc
  4593     1736  0AD4               	incf	login_menu@menu_pos+1,f
  4594     1737  3000               	movlw	0
  4595     1738  07D4               	addwf	login_menu@menu_pos+1,f
  4596     1739                     l4929:
  4597                           
  4598                           ;display.c: 212:   menu_pos--;
  4599     1739  0863               	movf	login_menu@select_pos+1,w
  4600     173A  3A80               	xorlw	128
  4601     173B  00FF               	movwf	btemp+1
  4602     173C  3080               	movlw	128
  4603     173D  027F               	subwf	btemp+1,w
  4604     173E  1D03               	skipz
  4605     173F  2F42               	goto	u4495
  4606     1740  3002               	movlw	2
  4607     1741  0262               	subwf	login_menu@select_pos,w
  4608     1742                     u4495:
  4609     1742  1803               	skipnc
  4610     1743  2F45               	goto	u4491
  4611     1744  2F46               	goto	u4490
  4612     1745                     u4491:
  4613     1745  2F4E               	goto	l4933
  4614     1746                     u4490:
  4615     1746                     l4931:
  4616                           
  4617                           ;display.c: 213:   if ( select_pos > 1 )
  4618     1746  3001               	movlw	1
  4619     1747  1283               	bcf	3,5	;RP0=0, select bank0
  4620     1748  1303               	bcf	3,6	;RP1=0, select bank0
  4621     1749  07E2               	addwf	login_menu@select_pos,f
  4622     174A  1803               	skipnc
  4623     174B  0AE3               	incf	login_menu@select_pos+1,f
  4624     174C  3000               	movlw	0
  4625     174D  07E3               	addwf	login_menu@select_pos+1,f
  4626     174E                     l4933:
  4627                           
  4628                           ;display.c: 215:         clcd_write(0x01, 0);
  4629     174E  01F3               	clrf	clcd_write@mode
  4630     174F  3001               	movlw	1
  4631     1750  160A  118A  22C6  160A  118A  	fcall	_clcd_write
  4632                           
  4633                           ;display.c: 216:  }
  4634     1755  2F8F               	goto	l4947
  4635     1756                     l4935:
  4636     1756  302F               	movlw	47
  4637     1757  1283               	bcf	3,5	;RP0=0, select bank0
  4638     1758  1303               	bcf	3,6	;RP1=0, select bank0
  4639     1759  062C               	xorwf	login_menu@key,w
  4640     175A  1D03               	btfss	3,2
  4641     175B  2F5D               	goto	u4501
  4642     175C  2F5E               	goto	u4500
  4643     175D                     u4501:
  4644     175D  2F8F               	goto	l4947
  4645     175E                     u4500:
  4646     175E                     l4937:
  4647     175E  0854               	movf	login_menu@menu_pos+1,w
  4648     175F  3A80               	xorlw	128
  4649     1760  00FF               	movwf	btemp+1
  4650     1761  3080               	movlw	128
  4651     1762  027F               	subwf	btemp+1,w
  4652     1763  1D03               	skipz
  4653     1764  2F67               	goto	u4515
  4654     1765  3001               	movlw	1
  4655     1766  0253               	subwf	login_menu@menu_pos,w
  4656     1767                     u4515:
  4657     1767  1C03               	skipc
  4658     1768  2F6A               	goto	u4511
  4659     1769  2F6B               	goto	u4510
  4660     176A                     u4511:
  4661     176A  2F8F               	goto	l4947
  4662     176B                     u4510:
  4663     176B                     l4939:
  4664                           
  4665                           ;display.c: 219:  {;display.c: 220:   clcd_putch('*',(0x80 + 0));
  4666     176B  30FF               	movlw	255
  4667     176C  1283               	bcf	3,5	;RP0=0, select bank0
  4668     176D  1303               	bcf	3,6	;RP1=0, select bank0
  4669     176E  07D3               	addwf	login_menu@menu_pos,f
  4670     176F  1803               	skipnc
  4671     1770  0AD4               	incf	login_menu@menu_pos+1,f
  4672     1771  30FF               	movlw	255
  4673     1772  07D4               	addwf	login_menu@menu_pos+1,f
  4674     1773                     l4941:
  4675                           
  4676                           ;display.c: 221:   clcd_print( menu[menu_pos],(0x80 + 2));
  4677     1773  0863               	movf	login_menu@select_pos+1,w
  4678     1774  3A80               	xorlw	128
  4679     1775  00FF               	movwf	btemp+1
  4680     1776  3080               	movlw	128
  4681     1777  027F               	subwf	btemp+1,w
  4682     1778  1D03               	skipz
  4683     1779  2F7C               	goto	u4525
  4684     177A  3002               	movlw	2
  4685     177B  0262               	subwf	login_menu@select_pos,w
  4686     177C                     u4525:
  4687     177C  1C03               	skipc
  4688     177D  2F7F               	goto	u4521
  4689     177E  2F80               	goto	u4520
  4690     177F                     u4521:
  4691     177F  2F88               	goto	l4945
  4692     1780                     u4520:
  4693     1780                     l4943:
  4694                           
  4695                           ;display.c: 222:   clcd_print( menu[menu_pos+1],(0xC0 + 2));
  4696     1780  30FF               	movlw	255
  4697     1781  1283               	bcf	3,5	;RP0=0, select bank0
  4698     1782  1303               	bcf	3,6	;RP1=0, select bank0
  4699     1783  07E2               	addwf	login_menu@select_pos,f
  4700     1784  1803               	skipnc
  4701     1785  0AE3               	incf	login_menu@select_pos+1,f
  4702     1786  30FF               	movlw	255
  4703     1787  07E3               	addwf	login_menu@select_pos+1,f
  4704     1788                     l4945:
  4705                           
  4706                           ;display.c: 223:  }
  4707     1788  01F3               	clrf	clcd_write@mode
  4708     1789  3001               	movlw	1
  4709     178A  160A  118A  22C6  160A  118A  	fcall	_clcd_write
  4710     178F                     l4947:
  4711                           
  4712                           ;display.c: 226:   clcd_putch('*',(0xC0 + 0));
  4713     178F  1283               	bcf	3,5	;RP0=0, select bank0
  4714     1790  1303               	bcf	3,6	;RP1=0, select bank0
  4715     1791  0362               	decf	login_menu@select_pos,w
  4716     1792  0463               	iorwf	login_menu@select_pos+1,w
  4717     1793  1D03               	btfss	3,2
  4718     1794  2F96               	goto	u4531
  4719     1795  2F97               	goto	u4530
  4720     1796                     u4531:
  4721     1796  2FCA               	goto	l4955
  4722     1797                     u4530:
  4723     1797                     l4949:
  4724                           
  4725                           ;display.c: 227:   clcd_print( menu[menu_pos-1],(0x80 + 2));;display.c: 228:   clcd_prin
      +                          t( menu[menu_pos],(0xC0 + 2));
  4726     1797  3080               	movlw	128
  4727     1798  00A7               	movwf	clcd_putch@addr
  4728     1799  302A               	movlw	42
  4729     179A  160A  118A  2058  160A  118A  	fcall	_clcd_putch
  4730     179F                     l4951:
  4731                           
  4732                           ;display.c: 229:  }
  4733     179F  1283               	bcf	3,5	;RP0=0, select bank0
  4734     17A0  1303               	bcf	3,6	;RP1=0, select bank0
  4735     17A1  0853               	movf	login_menu@menu_pos,w
  4736     17A2  00AA               	movwf	??_login_menu
  4737     17A3  072A               	addwf	??_login_menu,w
  4738     17A4  3ED0               	addlw	(low (_menu| 0))& (0+255)
  4739     17A5  0084               	movwf	4
  4740     17A6  1383               	bcf	3,7	;select IRP bank1
  4741     17A7  0800               	movf	0,w
  4742     17A8  00A0               	movwf	clcd_print@str
  4743     17A9  0A84               	incf	4,f
  4744     17AA  0800               	movf	0,w
  4745     17AB  0384               	decf	4,f
  4746     17AC  00A1               	movwf	clcd_print@str+1
  4747     17AD  3082               	movlw	130
  4748     17AE  00A2               	movwf	clcd_print@addr
  4749     17AF  160A  118A  225F  160A  118A  	fcall	_clcd_print
  4750     17B4                     l4953:
  4751                           
  4752                           ;display.c: 230: 
  4753     17B4  1283               	bcf	3,5	;RP0=0, select bank0
  4754     17B5  1303               	bcf	3,6	;RP1=0, select bank0
  4755     17B6  0853               	movf	login_menu@menu_pos,w
  4756     17B7  00AA               	movwf	??_login_menu
  4757     17B8  072A               	addwf	??_login_menu,w
  4758     17B9  3ED2               	addlw	(low ((_menu| 0+2)))& (0+255)
  4759     17BA  0084               	movwf	4
  4760     17BB  1383               	bcf	3,7	;select IRP bank1
  4761     17BC  0800               	movf	0,w
  4762     17BD  00A0               	movwf	clcd_print@str
  4763     17BE  0A84               	incf	4,f
  4764     17BF  0800               	movf	0,w
  4765     17C0  0384               	decf	4,f
  4766     17C1  00A1               	movwf	clcd_print@str+1
  4767     17C2  30C2               	movlw	194
  4768     17C3  00A2               	movwf	clcd_print@addr
  4769     17C4  160A  118A  225F  160A  118A  	fcall	_clcd_print
  4770                           
  4771                           ;display.c: 231:  return menu_pos;
  4772     17C9  2FFC               	goto	l4961
  4773     17CA                     l4955:
  4774                           
  4775                           ;display.c: 233: };display.c: 234: 
  4776     17CA  30C0               	movlw	192
  4777     17CB  00A7               	movwf	clcd_putch@addr
  4778     17CC  302A               	movlw	42
  4779     17CD  160A  118A  2058  160A  118A  	fcall	_clcd_putch
  4780     17D2                     l4957:
  4781                           
  4782                           ;display.c: 235: 
  4783     17D2  1283               	bcf	3,5	;RP0=0, select bank0
  4784     17D3  1303               	bcf	3,6	;RP1=0, select bank0
  4785     17D4  0853               	movf	login_menu@menu_pos,w
  4786     17D5  00AA               	movwf	??_login_menu
  4787     17D6  072A               	addwf	??_login_menu,w
  4788     17D7  3ECE               	addlw	(low ((_menu| 0+254)))& (0+255)
  4789     17D8  0084               	movwf	4
  4790     17D9  1383               	bcf	3,7	;select IRP bank1
  4791     17DA  0800               	movf	0,w
  4792     17DB  00A0               	movwf	clcd_print@str
  4793     17DC  0A84               	incf	4,f
  4794     17DD  0800               	movf	0,w
  4795     17DE  0384               	decf	4,f
  4796     17DF  00A1               	movwf	clcd_print@str+1
  4797     17E0  3082               	movlw	130
  4798     17E1  00A2               	movwf	clcd_print@addr
  4799     17E2  160A  118A  225F  160A  118A  	fcall	_clcd_print
  4800     17E7                     l4959:
  4801                           
  4802                           ;display.c: 236: 
  4803     17E7  1283               	bcf	3,5	;RP0=0, select bank0
  4804     17E8  1303               	bcf	3,6	;RP1=0, select bank0
  4805     17E9  0853               	movf	login_menu@menu_pos,w
  4806     17EA  00AA               	movwf	??_login_menu
  4807     17EB  072A               	addwf	??_login_menu,w
  4808     17EC  3ED0               	addlw	(low (_menu| 0))& (0+255)
  4809     17ED  0084               	movwf	4
  4810     17EE  1383               	bcf	3,7	;select IRP bank1
  4811     17EF  0800               	movf	0,w
  4812     17F0  00A0               	movwf	clcd_print@str
  4813     17F1  0A84               	incf	4,f
  4814     17F2  0800               	movf	0,w
  4815     17F3  0384               	decf	4,f
  4816     17F4  00A1               	movwf	clcd_print@str+1
  4817     17F5  30C2               	movlw	194
  4818     17F6  00A2               	movwf	clcd_print@addr
  4819     17F7  160A  118A  225F  160A  118A  	fcall	_clcd_print
  4820     17FC                     l4961:
  4821                           
  4822                           ;display.c: 239: {
  4823     17FC  1283               	bcf	3,5	;RP0=0, select bank0
  4824     17FD  1303               	bcf	3,6	;RP1=0, select bank0
  4825     17FE  0853               	movf	login_menu@menu_pos,w
  4826     17FF                     l354:
  4827     17FF  0008               	return
  4828     1800                     __end_of_login_menu:
  4829                           
  4830                           	psect	text6
  4831     0CF0                     __ptext6:	
  4832 ;; *************** function _login *****************
  4833 ;; Defined at:
  4834 ;;		line 106 in file "display.c"
  4835 ;; Parameters:    Size  Location     Type
  4836 ;;  key             1    wreg     unsigned char 
  4837 ;;  reset_flag      1    9[BANK0 ] unsigned char 
  4838 ;; Auto vars:     Size  Location     Type
  4839 ;;  key             1   17[BANK0 ] unsigned char 
  4840 ;;  spassword       5   12[BANK0 ] unsigned char [5]
  4841 ;; Return value:  Size  Location     Type
  4842 ;;                  1    wreg      unsigned char 
  4843 ;; Registers used:
  4844 ;;		wreg, fsr0l, fsr0h, status,2, status,0, btemp+1, pclath, cstack
  4845 ;; Tracked objects:
  4846 ;;		On entry : 0/0
  4847 ;;		On exit  : 0/0
  4848 ;;		Unchanged: 0/0
  4849 ;; Data sizes:     COMMON   BANK0   BANK1   BANK3   BANK2
  4850 ;;      Params:         0       1       0       0       0
  4851 ;;      Locals:         0       6       0       0       0
  4852 ;;      Temps:          0       2       0       0       0
  4853 ;;      Totals:         0       9       0       0       0
  4854 ;;Total ram usage:        9 bytes
  4855 ;; Hardware stack levels used: 1
  4856 ;; Hardware stack levels required when called: 5
  4857 ;; This function calls:
  4858 ;;		___awdiv
  4859 ;;		___awmod
  4860 ;;		_clcd_print
  4861 ;;		_clcd_putch
  4862 ;;		_clcd_write
  4863 ;;		_get_password
  4864 ;;		_strcmp
  4865 ;; This function is called by:
  4866 ;;		_main
  4867 ;; This function uses a non-reentrant model
  4868 ;;
  4869                           
  4870     0CF0                     _login:	
  4871                           ;psect for function _login
  4872                           
  4873                           
  4874                           ;incstack = 0
  4875                           ; Regs used in _login: [wreg-fsr0h+status,2+status,0+btemp+1+pclath+cstack]
  4876                           ;login@key stored from wreg
  4877     0CF0  1283               	bcf	3,5	;RP0=0, select bank0
  4878     0CF1  1303               	bcf	3,6	;RP1=0, select bank0
  4879     0CF2  00B1               	movwf	login@key
  4880     0CF3                     l4807:
  4881                           
  4882                           ;display.c: 106:         key = 0x3F;;display.c: 107:         attempt_rem = 3;;display.c:
      +                           108:         i = 0;;display.c: 109:         sec = 0;;display.c: 110:         npassword[
      +                          0] = 0;;display.c: 111:         npassword[1] = 0;;display.c: 112:         npassword[2] =
      +                           0;
  4883     0CF3  0329               	decf	login@reset_flag,w
  4884     0CF4  1D03               	btfss	3,2
  4885     0CF5  2CF7               	goto	u4351
  4886     0CF6  2CF8               	goto	u4350
  4887     0CF7                     u4351:
  4888     0CF7  2D0C               	goto	l4827
  4889     0CF8                     u4350:
  4890     0CF8                     l4809:
  4891                           
  4892                           ;display.c: 113:         npassword[3] = 0;;display.c: 114:         npassword[4] = '\0';
  4893     0CF8  303F               	movlw	63
  4894     0CF9  00B1               	movwf	login@key
  4895                           
  4896                           ;display.c: 115:          return_time = 5;
  4897     0CFA  3003               	movlw	3
  4898     0CFB  00DD               	movwf	login@attempt_rem
  4899     0CFC                     l4811:
  4900                           
  4901                           ;display.c: 116: 
  4902     0CFC  01DE               	clrf	login@i
  4903     0CFD                     l4813:
  4904                           
  4905                           ;display.c: 117:     }
  4906     0CFD  01D7               	clrf	_sec
  4907     0CFE  01D8               	clrf	_sec+1
  4908     0CFF                     l4815:
  4909                           
  4910                           ;display.c: 118:     if(return_time == 0)
  4911     0CFF  1683               	bsf	3,5	;RP0=1, select bank1
  4912     0D00  1303               	bcf	3,6	;RP1=0, select bank1
  4913     0D01  01BF               	clrf	login@npassword^(0+128)
  4914     0D02                     l4817:
  4915                           
  4916                           ;display.c: 119:     {
  4917     0D02  01C0               	clrf	(login@npassword^(0+128)+1)
  4918     0D03                     l4819:
  4919                           
  4920                           ;display.c: 120:         return 0x03;
  4921     0D03  01C1               	clrf	(login@npassword^(0+128)+2)
  4922     0D04                     l4821:
  4923                           
  4924                           ;display.c: 121:     }
  4925     0D04  01C2               	clrf	(login@npassword^(0+128)+3)
  4926     0D05                     l4823:
  4927                           
  4928                           ;display.c: 122:     clcd_write(0x0F, 0);
  4929     0D05  01C3               	clrf	(login@npassword^(0+128)+4)
  4930     0D06                     l4825:
  4931                           
  4932                           ;display.c: 123: 
  4933     0D06  3005               	movlw	5
  4934     0D07  1283               	bcf	3,5	;RP0=0, select bank0
  4935     0D08  1303               	bcf	3,6	;RP1=0, select bank0
  4936     0D09  00D5               	movwf	_return_time
  4937     0D0A  3000               	movlw	0
  4938     0D0B  00D6               	movwf	_return_time+1
  4939     0D0C                     l4827:
  4940                           
  4941                           ;display.c: 126:         return_time = 5;
  4942     0D0C  0855               	movf	_return_time,w
  4943     0D0D  0456               	iorwf	_return_time+1,w
  4944     0D0E  1D03               	btfss	3,2
  4945     0D0F  2D11               	goto	u4361
  4946     0D10  2D12               	goto	u4360
  4947     0D11                     u4361:
  4948     0D11  2D14               	goto	l4833
  4949     0D12                     u4360:
  4950     0D12                     l4829:
  4951                           
  4952                           ;display.c: 127:         npassword[i] = '1';;display.c: 128:         clcd_putch('*',(0xC
      +                          0 + 6 + i));
  4953     0D12  3003               	movlw	3
  4954     0D13  2E6F               	goto	l325
  4955     0D14                     l4833:
  4956                           
  4957                           ;display.c: 130:     }
  4958     0D14  01F3               	clrf	clcd_write@mode
  4959     0D15  300F               	movlw	15
  4960     0D16  160A  118A  22C6  120A  158A  	fcall	_clcd_write
  4961     0D1B                     l4835:
  4962                           
  4963                           ;display.c: 132:     else if(key == 0x2F && i < 4 )
  4964     0D1B  3037               	movlw	55
  4965     0D1C  1283               	bcf	3,5	;RP0=0, select bank0
  4966     0D1D  1303               	bcf	3,6	;RP1=0, select bank0
  4967     0D1E  0631               	xorwf	login@key,w
  4968     0D1F  1D03               	btfss	3,2
  4969     0D20  2D22               	goto	u4371
  4970     0D21  2D23               	goto	u4370
  4971     0D22                     u4371:
  4972     0D22  2D43               	goto	l4847
  4973     0D23                     u4370:
  4974     0D23                     l4837:
  4975     0D23  3004               	movlw	4
  4976     0D24  025E               	subwf	login@i,w
  4977     0D25  1803               	skipnc
  4978     0D26  2D28               	goto	u4381
  4979     0D27  2D29               	goto	u4380
  4980     0D28                     u4381:
  4981     0D28  2D43               	goto	l4847
  4982     0D29                     u4380:
  4983     0D29                     l4839:
  4984                           
  4985                           ;display.c: 133:     {;display.c: 134:         return_time = 5;
  4986     0D29  3005               	movlw	5
  4987     0D2A  00D5               	movwf	_return_time
  4988     0D2B  3000               	movlw	0
  4989     0D2C  00D6               	movwf	_return_time+1
  4990     0D2D                     l4841:
  4991                           
  4992                           ;display.c: 135:         npassword[i] = '0';
  4993     0D2D  085E               	movf	login@i,w
  4994     0D2E  3EBF               	addlw	(low (login@npassword| 0))& (0+255)
  4995     0D2F  0084               	movwf	4
  4996     0D30  3031               	movlw	49
  4997     0D31  1383               	bcf	3,7	;select IRP bank1
  4998     0D32  0080               	movwf	0
  4999     0D33                     l4843:
  5000                           
  5001                           ;display.c: 136:         clcd_putch('*',(0xC0 + 6 + i));
  5002     0D33  085E               	movf	login@i,w
  5003     0D34  3EC6               	addlw	198
  5004     0D35  00A7               	movwf	clcd_putch@addr
  5005     0D36  302A               	movlw	42
  5006     0D37  160A  118A  2058  120A  158A  	fcall	_clcd_putch
  5007     0D3C                     l4845:
  5008                           
  5009                           ;display.c: 137:         i++;
  5010     0D3C  3001               	movlw	1
  5011     0D3D  00FF               	movwf	btemp+1
  5012     0D3E  087F               	movf	btemp+1,w
  5013     0D3F  1283               	bcf	3,5	;RP0=0, select bank0
  5014     0D40  1303               	bcf	3,6	;RP1=0, select bank0
  5015     0D41  07DE               	addwf	login@i,f
  5016                           
  5017                           ;display.c: 138:     }
  5018     0D42  2D63               	goto	l4859
  5019     0D43                     l4847:
  5020     0D43  302F               	movlw	47
  5021     0D44  0631               	xorwf	login@key,w
  5022     0D45  1D03               	btfss	3,2
  5023     0D46  2D48               	goto	u4391
  5024     0D47  2D49               	goto	u4390
  5025     0D48                     u4391:
  5026     0D48  2D63               	goto	l4859
  5027     0D49                     u4390:
  5028     0D49                     l4849:
  5029     0D49  3004               	movlw	4
  5030     0D4A  025E               	subwf	login@i,w
  5031     0D4B  1803               	skipnc
  5032     0D4C  2D4E               	goto	u4401
  5033     0D4D  2D4F               	goto	u4400
  5034     0D4E                     u4401:
  5035     0D4E  2D63               	goto	l4859
  5036     0D4F                     u4400:
  5037     0D4F                     l4851:
  5038                           
  5039                           ;display.c: 141:     {;display.c: 142:         get_password(spassword);
  5040     0D4F  3005               	movlw	5
  5041     0D50  00D5               	movwf	_return_time
  5042     0D51  3000               	movlw	0
  5043     0D52  00D6               	movwf	_return_time+1
  5044     0D53                     l4853:
  5045                           
  5046                           ;display.c: 143:         if(strcmp(npassword,spassword) == 0)
  5047     0D53  085E               	movf	login@i,w
  5048     0D54  3EBF               	addlw	(low (login@npassword| 0))& (0+255)
  5049     0D55  0084               	movwf	4
  5050     0D56  3030               	movlw	48
  5051     0D57  1383               	bcf	3,7	;select IRP bank1
  5052     0D58  0080               	movwf	0
  5053     0D59                     l4855:
  5054                           
  5055                           ;display.c: 144:         {
  5056     0D59  085E               	movf	login@i,w
  5057     0D5A  3EC6               	addlw	198
  5058     0D5B  00A7               	movwf	clcd_putch@addr
  5059     0D5C  302A               	movlw	42
  5060     0D5D  160A  118A  2058  120A  158A  	fcall	_clcd_putch
  5061     0D62  2D3C               	goto	l4845
  5062     0D63                     l4859:
  5063                           
  5064                           ;display.c: 148:     {
  5065     0D63  3004               	movlw	4
  5066     0D64  065E               	xorwf	login@i,w
  5067     0D65  1D03               	btfss	3,2
  5068     0D66  2D68               	goto	u4411
  5069     0D67  2D69               	goto	u4410
  5070     0D68                     u4411:
  5071     0D68  2E6E               	goto	l4913
  5072     0D69                     u4410:
  5073     0D69                     l4861:
  5074                           
  5075                           ;display.c: 149:        if(--attempt_rem == 0 );display.c: 150:             {
  5076     0D69  302C               	movlw	(low (login@spassword| 0))& (0+255)
  5077     0D6A  160A  118A  2183  120A  158A  	fcall	_get_password
  5078                           
  5079                           ;display.c: 151: 
  5080     0D6F  302C               	movlw	(low (login@spassword| 0))& (0+255)
  5081     0D70  00F3               	movwf	strcmp@r
  5082     0D71  30BF               	movlw	(low (login@npassword| 0))& (0+255)
  5083     0D72  160A  118A  2203  120A  158A  	fcall	_strcmp
  5084     0D77  0873               	movf	?_strcmp,w
  5085     0D78  0474               	iorwf	?_strcmp+1,w
  5086     0D79  1D03               	btfss	3,2
  5087     0D7A  2D7C               	goto	u4421
  5088     0D7B  2D7D               	goto	u4420
  5089     0D7C                     u4421:
  5090     0D7C  2D7F               	goto	l4869
  5091     0D7D                     u4420:
  5092     0D7D                     l4863:
  5093                           
  5094                           ;display.c: 152:               clcd_write(0x0C, 0);;display.c: 153:                 clcd
      +                          _write(0x01, 0);
  5095     0D7D  3001               	movlw	1
  5096     0D7E  2E6F               	goto	l325
  5097     0D7F                     l4869:
  5098                           
  5099                           ;display.c: 156:                 clcd_print("wait for ..60sec",(0xC0 + 0));;display.c: 1
      +                          57:                 sec = 60;
  5100     0D7F  3001               	movlw	1
  5101     0D80  1283               	bcf	3,5	;RP0=0, select bank0
  5102     0D81  1303               	bcf	3,6	;RP1=0, select bank0
  5103     0D82  02DD               	subwf	login@attempt_rem,f
  5104     0D83  1D03               	btfss	3,2
  5105     0D84  2D86               	goto	u4431
  5106     0D85  2D87               	goto	u4430
  5107     0D86                     u4431:
  5108     0D86  2DF9               	goto	l4887
  5109     0D87                     u4430:
  5110     0D87                     l4871:
  5111                           
  5112                           ;display.c: 158:                 while(sec);display.c: 160:                     clcd_put
      +                          ch(sec / 10 + '0',(0xC0 + 11));
  5113     0D87  01F3               	clrf	clcd_write@mode
  5114     0D88  300C               	movlw	12
  5115     0D89  160A  118A  22C6  120A  158A  	fcall	_clcd_write
  5116                           
  5117                           ;display.c: 161:                     clcd_putch(sec % 10 + '0',(0xC0 + 12));
  5118     0D8E  01F3               	clrf	clcd_write@mode
  5119     0D8F  3001               	movlw	1
  5120     0D90  160A  118A  22C6  120A  158A  	fcall	_clcd_write
  5121     0D95                     l4873:
  5122                           
  5123                           ;display.c: 162:                 }
  5124     0D95  3004               	movlw	4
  5125     0D96  1283               	bcf	3,5	;RP0=0, select bank0
  5126     0D97  1303               	bcf	3,6	;RP1=0, select bank0
  5127     0D98  00AB               	movwf	??_login+1
  5128     0D99  303D               	movlw	61
  5129     0D9A  00AA               	movwf	??_login
  5130     0D9B                     u5187:
  5131     0D9B  0BAA               	decfsz	??_login,f
  5132     0D9C  2D9B               	goto	u5187
  5133     0D9D  0BAB               	decfsz	??_login+1,f
  5134     0D9E  2D9B               	goto	u5187
  5135     0D9F                     l4875:
  5136                           
  5137                           ;display.c: 163:                 attempt_rem = 3;
  5138     0D9F  30C0               	movlw	low (STR_20| (0+32768))
  5139     0DA0  1283               	bcf	3,5	;RP0=0, select bank0
  5140     0DA1  1303               	bcf	3,6	;RP1=0, select bank0
  5141     0DA2  00A0               	movwf	clcd_print@str
  5142     0DA3  3088               	movlw	high (STR_20| (0+32768))
  5143     0DA4  00A1               	movwf	clcd_print@str+1
  5144     0DA5  3080               	movlw	128
  5145     0DA6  00A2               	movwf	clcd_print@addr
  5146     0DA7  160A  118A  225F  120A  158A  	fcall	_clcd_print
  5147     0DAC                     l4877:
  5148                           
  5149                           ;display.c: 164: 
  5150     0DAC  305B               	movlw	low (STR_21| (0+32768))
  5151     0DAD  1283               	bcf	3,5	;RP0=0, select bank0
  5152     0DAE  1303               	bcf	3,6	;RP1=0, select bank0
  5153     0DAF  00A0               	movwf	clcd_print@str
  5154     0DB0  3088               	movlw	high (STR_21| (0+32768))
  5155     0DB1  00A1               	movwf	clcd_print@str+1
  5156     0DB2  30C0               	movlw	192
  5157     0DB3  00A2               	movwf	clcd_print@addr
  5158     0DB4  160A  118A  225F  120A  158A  	fcall	_clcd_print
  5159     0DB9                     l4879:
  5160                           
  5161                           ;display.c: 165:             }
  5162     0DB9  303C               	movlw	60
  5163     0DBA  1283               	bcf	3,5	;RP0=0, select bank0
  5164     0DBB  1303               	bcf	3,6	;RP1=0, select bank0
  5165     0DBC  00D7               	movwf	_sec
  5166     0DBD  3000               	movlw	0
  5167     0DBE  00D8               	movwf	_sec+1
  5168                           
  5169                           ;display.c: 166:             else
  5170     0DBF  2DEE               	goto	l4883
  5171     0DC0                     l4881:
  5172                           
  5173                           ;display.c: 167:             {;display.c: 168: 
  5174     0DC0  30CB               	movlw	203
  5175     0DC1  00A7               	movwf	clcd_putch@addr
  5176     0DC2  300A               	movlw	10
  5177     0DC3  00F3               	movwf	___awdiv@divisor
  5178     0DC4  3000               	movlw	0
  5179     0DC5  00F4               	movwf	___awdiv@divisor+1
  5180     0DC6  0858               	movf	_sec+1,w
  5181     0DC7  00F6               	movwf	___awdiv@dividend+1
  5182     0DC8  0857               	movf	_sec,w
  5183     0DC9  00F5               	movwf	___awdiv@dividend
  5184     0DCA  160A  118A  26A6  120A  158A  	fcall	___awdiv
  5185     0DCF  0873               	movf	?___awdiv,w
  5186     0DD0  3E30               	addlw	48
  5187     0DD1  160A  118A  2058  120A  158A  	fcall	_clcd_putch
  5188                           
  5189                           ;display.c: 169:                 clcd_write(0x01, 0);
  5190     0DD6  30CC               	movlw	204
  5191     0DD7  1283               	bcf	3,5	;RP0=0, select bank0
  5192     0DD8  1303               	bcf	3,6	;RP1=0, select bank0
  5193     0DD9  00A7               	movwf	clcd_putch@addr
  5194     0DDA  300A               	movlw	10
  5195     0DDB  00F3               	movwf	___awmod@divisor
  5196     0DDC  3000               	movlw	0
  5197     0DDD  00F4               	movwf	___awmod@divisor+1
  5198     0DDE  0858               	movf	_sec+1,w
  5199     0DDF  00F6               	movwf	___awmod@dividend+1
  5200     0DE0  0857               	movf	_sec,w
  5201     0DE1  00F5               	movwf	___awmod@dividend
  5202     0DE2  120A  158A  2193  120A  158A  	fcall	___awmod
  5203     0DE7  0873               	movf	?___awmod,w
  5204     0DE8  3E30               	addlw	48
  5205     0DE9  160A  118A  2058  120A  158A  	fcall	_clcd_putch
  5206     0DEE                     l4883:
  5207                           
  5208                           ;display.c: 166:             else
  5209     0DEE  1283               	bcf	3,5	;RP0=0, select bank0
  5210     0DEF  1303               	bcf	3,6	;RP1=0, select bank0
  5211     0DF0  0857               	movf	_sec,w
  5212     0DF1  0458               	iorwf	_sec+1,w
  5213     0DF2  1D03               	btfss	3,2
  5214     0DF3  2DF5               	goto	u4441
  5215     0DF4  2DF6               	goto	u4440
  5216     0DF5                     u4441:
  5217     0DF5  2DC0               	goto	l4881
  5218     0DF6                     u4440:
  5219     0DF6                     l4885:
  5220                           
  5221                           ;display.c: 171:                 clcd_write(0x0C, 0);
  5222     0DF6  3003               	movlw	3
  5223     0DF7  00DD               	movwf	login@attempt_rem
  5224                           
  5225                           ;display.c: 173:                 clcd_print(" WRONG PASSWORD ",(0x80 + 0));
  5226     0DF8  2E49               	goto	l4903
  5227     0DF9                     l4887:
  5228                           
  5229                           ;display.c: 175:                 clcd_print("attempt Remains",(0xC0 + 2));;display.c: 17
      +                          7:                  while(sec);
  5230     0DF9  01F3               	clrf	clcd_write@mode
  5231     0DFA  3001               	movlw	1
  5232     0DFB  160A  118A  22C6  120A  158A  	fcall	_clcd_write
  5233     0E00                     l4889:
  5234                           
  5235                           ;display.c: 178:             }
  5236     0E00  3004               	movlw	4
  5237     0E01  1283               	bcf	3,5	;RP0=0, select bank0
  5238     0E02  1303               	bcf	3,6	;RP1=0, select bank0
  5239     0E03  00AB               	movwf	??_login+1
  5240     0E04  303D               	movlw	61
  5241     0E05  00AA               	movwf	??_login
  5242     0E06                     u5197:
  5243     0E06  0BAA               	decfsz	??_login,f
  5244     0E07  2E06               	goto	u5197
  5245     0E08  0BAB               	decfsz	??_login+1,f
  5246     0E09  2E06               	goto	u5197
  5247     0E0A                     l4891:
  5248                           
  5249                           ;display.c: 179:          clcd_write(0x01, 0);
  5250     0E0A  01F3               	clrf	clcd_write@mode
  5251     0E0B  300C               	movlw	12
  5252     0E0C  160A  118A  22C6  120A  158A  	fcall	_clcd_write
  5253                           
  5254                           ;display.c: 180:              _delay((unsigned long)((500)*(20000000/4000000.0)));
  5255     0E11  30A5               	movlw	165
  5256     0E12  1283               	bcf	3,5	;RP0=0, select bank0
  5257     0E13  1303               	bcf	3,6	;RP1=0, select bank0
  5258     0E14  00AA               	movwf	??_login
  5259     0E15                     u5207:
  5260     0E15  0BAA               	decfsz	??_login,f
  5261     0E16  2E15               	goto	u5207
  5262     0E17  2E18               	nop2
  5263     0E18                     l4893:
  5264                           
  5265                           ;display.c: 181:         clcd_print(" ENTER PASSWORD ",(0x80 + 0));
  5266     0E18  3039               	movlw	low (STR_22| (0+32768))
  5267     0E19  1283               	bcf	3,5	;RP0=0, select bank0
  5268     0E1A  1303               	bcf	3,6	;RP1=0, select bank0
  5269     0E1B  00A0               	movwf	clcd_print@str
  5270     0E1C  3088               	movlw	high (STR_22| (0+32768))
  5271     0E1D  00A1               	movwf	clcd_print@str+1
  5272     0E1E  3080               	movlw	128
  5273     0E1F  00A2               	movwf	clcd_print@addr
  5274     0E20  160A  118A  225F  120A  158A  	fcall	_clcd_print
  5275     0E25                     l4895:
  5276                           
  5277                           ;display.c: 182: 
  5278     0E25  30C0               	movlw	192
  5279     0E26  1283               	bcf	3,5	;RP0=0, select bank0
  5280     0E27  1303               	bcf	3,6	;RP1=0, select bank0
  5281     0E28  00A7               	movwf	clcd_putch@addr
  5282     0E29  085D               	movf	login@attempt_rem,w
  5283     0E2A  3E30               	addlw	48
  5284     0E2B  160A  118A  2058  120A  158A  	fcall	_clcd_putch
  5285     0E30                     l4897:
  5286                           
  5287                           ;display.c: 183:            i = 0;
  5288     0E30  30E0               	movlw	low (STR_23| (0+32768))
  5289     0E31  1283               	bcf	3,5	;RP0=0, select bank0
  5290     0E32  1303               	bcf	3,6	;RP1=0, select bank0
  5291     0E33  00A0               	movwf	clcd_print@str
  5292     0E34  3088               	movlw	high (STR_23| (0+32768))
  5293     0E35  00A1               	movwf	clcd_print@str+1
  5294     0E36  30C2               	movlw	194
  5295     0E37  00A2               	movwf	clcd_print@addr
  5296     0E38  160A  118A  225F  120A  158A  	fcall	_clcd_print
  5297     0E3D                     l4899:
  5298                           
  5299                           ;display.c: 184:        return_time = 5;
  5300     0E3D  3003               	movlw	3
  5301     0E3E  1283               	bcf	3,5	;RP0=0, select bank0
  5302     0E3F  1303               	bcf	3,6	;RP1=0, select bank0
  5303     0E40  00D7               	movwf	_sec
  5304     0E41  3000               	movlw	0
  5305     0E42  00D8               	movwf	_sec+1
  5306     0E43                     l4901:	
  5307                           ;display.c: 185:     }
  5308                           
  5309     0E43  0857               	movf	_sec,w
  5310     0E44  0458               	iorwf	_sec+1,w
  5311     0E45  1D03               	btfss	3,2
  5312     0E46  2E48               	goto	u4451
  5313     0E47  2E49               	goto	u4450
  5314     0E48                     u4451:
  5315     0E48  2E43               	goto	l4901
  5316     0E49                     u4450:
  5317     0E49                     l4903:
  5318                           
  5319                           ;display.c: 187:     return 0x10;
  5320     0E49  01F3               	clrf	clcd_write@mode
  5321     0E4A  3001               	movlw	1
  5322     0E4B  160A  118A  22C6  120A  158A  	fcall	_clcd_write
  5323     0E50                     l4905:
  5324                           
  5325                           ;display.c: 188: }
  5326     0E50  3004               	movlw	4
  5327     0E51  1283               	bcf	3,5	;RP0=0, select bank0
  5328     0E52  1303               	bcf	3,6	;RP1=0, select bank0
  5329     0E53  00AB               	movwf	??_login+1
  5330     0E54  303D               	movlw	61
  5331     0E55  00AA               	movwf	??_login
  5332     0E56                     u5217:
  5333     0E56  0BAA               	decfsz	??_login,f
  5334     0E57  2E56               	goto	u5217
  5335     0E58  0BAB               	decfsz	??_login+1,f
  5336     0E59  2E56               	goto	u5217
  5337     0E5A                     l4907:
  5338                           
  5339                           ;display.c: 189: 
  5340     0E5A  309F               	movlw	low (STR_8| (0+32768))
  5341     0E5B  1283               	bcf	3,5	;RP0=0, select bank0
  5342     0E5C  1303               	bcf	3,6	;RP1=0, select bank0
  5343     0E5D  00A0               	movwf	clcd_print@str
  5344     0E5E  3088               	movlw	high (STR_8| (0+32768))
  5345     0E5F  00A1               	movwf	clcd_print@str+1
  5346     0E60  3080               	movlw	128
  5347     0E61  00A2               	movwf	clcd_print@addr
  5348     0E62  160A  118A  225F  120A  158A  	fcall	_clcd_print
  5349     0E67                     l4909:
  5350                           
  5351                           ;display.c: 191: char login_menu(char key,char reset_flag)
  5352     0E67  1283               	bcf	3,5	;RP0=0, select bank0
  5353     0E68  1303               	bcf	3,6	;RP1=0, select bank0
  5354     0E69  01DE               	clrf	login@i
  5355     0E6A                     l4911:
  5356                           
  5357                           ;display.c: 192: {
  5358     0E6A  3005               	movlw	5
  5359     0E6B  00D5               	movwf	_return_time
  5360     0E6C  3000               	movlw	0
  5361     0E6D  00D6               	movwf	_return_time+1
  5362     0E6E                     l4913:
  5363                           
  5364                           ;display.c: 195:  if ( reset_flag == 0x05 )
  5365     0E6E  3010               	movlw	16
  5366     0E6F                     l325:
  5367     0E6F  0008               	return
  5368     0E70                     __end_of_login:
  5369                           
  5370                           	psect	text7
  5371     1203                     __ptext7:	
  5372 ;; *************** function _strcmp *****************
  5373 ;; Defined at:
  5374 ;;		line 3 in file "C:\Program Files\Microchip\xc8\v2.45\pic\sources\c99\common\strcmp.c"
  5375 ;; Parameters:    Size  Location     Type
  5376 ;;  l               1    wreg     PTR const unsigned char 
  5377 ;;		 -> login@npassword(5), 
  5378 ;;  r               1    3[COMMON] PTR const unsigned char 
  5379 ;;		 -> login@spassword(5), 
  5380 ;; Auto vars:     Size  Location     Type
  5381 ;;  l               1    7[COMMON] PTR const unsigned char 
  5382 ;;		 -> login@npassword(5), 
  5383 ;; Return value:  Size  Location     Type
  5384 ;;                  2    3[COMMON] int 
  5385 ;; Registers used:
  5386 ;;		wreg, fsr0l, fsr0h, status,2, status,0, btemp+1
  5387 ;; Tracked objects:
  5388 ;;		On entry : 0/0
  5389 ;;		On exit  : 0/0
  5390 ;;		Unchanged: 0/0
  5391 ;; Data sizes:     COMMON   BANK0   BANK1   BANK3   BANK2
  5392 ;;      Params:         2       0       0       0       0
  5393 ;;      Locals:         1       0       0       0       0
  5394 ;;      Temps:          2       0       0       0       0
  5395 ;;      Totals:         5       0       0       0       0
  5396 ;;Total ram usage:        5 bytes
  5397 ;; Hardware stack levels used: 1
  5398 ;; Hardware stack levels required when called: 1
  5399 ;; This function calls:
  5400 ;;		Nothing
  5401 ;; This function is called by:
  5402 ;;		_login
  5403 ;; This function uses a non-reentrant model
  5404 ;;
  5405                           
  5406     1203                     _strcmp:	
  5407                           ;psect for function _strcmp
  5408                           
  5409                           
  5410                           ;incstack = 0
  5411                           ; Regs used in _strcmp: [wreg-fsr0h+status,2+status,0+btemp+1]
  5412                           ;strcmp@l stored from wreg
  5413     1203  00F7               	movwf	strcmp@l
  5414     1204                     l4469:
  5415     1204  2A0D               	goto	l4475
  5416     1205                     l4471:
  5417     1205  3001               	movlw	1
  5418     1206  00FF               	movwf	btemp+1
  5419     1207  087F               	movf	btemp+1,w
  5420     1208  07F7               	addwf	strcmp@l,f
  5421     1209                     l4473:
  5422     1209  3001               	movlw	1
  5423     120A  00FF               	movwf	btemp+1
  5424     120B  087F               	movf	btemp+1,w
  5425     120C  07F3               	addwf	strcmp@r,f
  5426     120D                     l4475:
  5427     120D  0873               	movf	strcmp@r,w
  5428     120E  0084               	movwf	4
  5429     120F  1383               	bcf	3,7	;select IRP bank0
  5430     1210  0800               	movf	0,w
  5431     1211  00F5               	movwf	??_strcmp
  5432     1212  0877               	movf	strcmp@l,w
  5433     1213  0084               	movwf	4
  5434     1214  0800               	movf	0,w
  5435     1215  0675               	xorwf	??_strcmp,w
  5436     1216  1D03               	skipz
  5437     1217  2A19               	goto	u3721
  5438     1218  2A1A               	goto	u3720
  5439     1219                     u3721:
  5440     1219  2A21               	goto	l4479
  5441     121A                     u3720:
  5442     121A                     l4477:
  5443     121A  0877               	movf	strcmp@l,w
  5444     121B  0084               	movwf	4
  5445     121C  0800               	movf	0,w
  5446     121D  1D03               	btfss	3,2
  5447     121E  2A20               	goto	u3731
  5448     121F  2A21               	goto	u3730
  5449     1220                     u3731:
  5450     1220  2A05               	goto	l4471
  5451     1221                     u3730:
  5452     1221                     l4479:
  5453     1221  0873               	movf	strcmp@r,w
  5454     1222  0084               	movwf	4
  5455     1223  0800               	movf	0,w
  5456     1224  00F5               	movwf	??_strcmp
  5457     1225  0877               	movf	strcmp@l,w
  5458     1226  0084               	movwf	4
  5459     1227  0800               	movf	0,w
  5460     1228  00F6               	movwf	??_strcmp+1
  5461     1229  0875               	movf	??_strcmp,w
  5462     122A  0276               	subwf	??_strcmp+1,w
  5463     122B  00F3               	movwf	?_strcmp
  5464     122C  01F4               	clrf	?_strcmp+1
  5465     122D  1C03               	skipc
  5466     122E  03F4               	decf	?_strcmp+1,f
  5467     122F                     l1108:
  5468     122F  0008               	return
  5469     1230                     __end_of_strcmp:
  5470                           
  5471                           	psect	text8
  5472     1183                     __ptext8:	
  5473 ;; *************** function _get_password *****************
  5474 ;; Defined at:
  5475 ;;		line 97 in file "display.c"
  5476 ;; Parameters:    Size  Location     Type
  5477 ;;  spassword       1    wreg     PTR unsigned char 
  5478 ;;		 -> login@spassword(5), 
  5479 ;; Auto vars:     Size  Location     Type
  5480 ;;  spassword       1    0[BANK0 ] PTR unsigned char 
  5481 ;;		 -> login@spassword(5), 
  5482 ;;  i               2    1[BANK0 ] int 
  5483 ;; Return value:  Size  Location     Type
  5484 ;;                  1    wreg      void 
  5485 ;; Registers used:
  5486 ;;		wreg, fsr0l, fsr0h, status,2, status,0, btemp+1, pclath, cstack
  5487 ;; Tracked objects:
  5488 ;;		On entry : 0/0
  5489 ;;		On exit  : 0/0
  5490 ;;		Unchanged: 0/0
  5491 ;; Data sizes:     COMMON   BANK0   BANK1   BANK3   BANK2
  5492 ;;      Params:         0       0       0       0       0
  5493 ;;      Locals:         0       3       0       0       0
  5494 ;;      Temps:          1       0       0       0       0
  5495 ;;      Totals:         1       3       0       0       0
  5496 ;;Total ram usage:        4 bytes
  5497 ;; Hardware stack levels used: 1
  5498 ;; Hardware stack levels required when called: 4
  5499 ;; This function calls:
  5500 ;;		_ext_eeprom_24C02_read
  5501 ;; This function is called by:
  5502 ;;		_login
  5503 ;; This function uses a non-reentrant model
  5504 ;;
  5505                           
  5506     1183                     _get_password:	
  5507                           ;psect for function _get_password
  5508                           
  5509                           
  5510                           ;incstack = 0
  5511                           ; Regs used in _get_password: [wreg-fsr0h+status,2+status,0+btemp+1+pclath+cstack]
  5512                           ;get_password@spassword stored from wreg
  5513     1183  1283               	bcf	3,5	;RP0=0, select bank0
  5514     1184  1303               	bcf	3,6	;RP1=0, select bank0
  5515     1185  00A0               	movwf	get_password@spassword
  5516     1186                     l4457:
  5517                           
  5518                           ;display.c: 97: ;display.c: 98: char login(char key ,char reset_flag);display.c: 100:   
      +                            char spassword[5];
  5519     1186  01A1               	clrf	get_password@i
  5520     1187  01A2               	clrf	get_password@i+1
  5521     1188                     l4463:
  5522                           
  5523                           ;display.c: 101:     static char npassword[5];;display.c: 102:     static char i = 0;
  5524     1188  1283               	bcf	3,5	;RP0=0, select bank0
  5525     1189  1303               	bcf	3,6	;RP1=0, select bank0
  5526     118A  0821               	movf	get_password@i,w
  5527     118B  0720               	addwf	get_password@spassword,w
  5528     118C  00F7               	movwf	??_get_password
  5529     118D  0877               	movf	??_get_password,w
  5530     118E  0084               	movwf	4
  5531     118F  0821               	movf	get_password@i,w
  5532     1190  160A  118A  21D8  160A  118A  	fcall	_ext_eeprom_24C02_read
  5533     1195  1383               	bcf	3,7	;select IRP bank0
  5534     1196  0080               	movwf	0
  5535     1197                     l4465:
  5536                           
  5537                           ;display.c: 103:     static unsigned char attempt_rem;
  5538     1197  3001               	movlw	1
  5539     1198  1283               	bcf	3,5	;RP0=0, select bank0
  5540     1199  1303               	bcf	3,6	;RP1=0, select bank0
  5541     119A  07A1               	addwf	get_password@i,f
  5542     119B  1803               	skipnc
  5543     119C  0AA2               	incf	get_password@i+1,f
  5544     119D  3000               	movlw	0
  5545     119E  07A2               	addwf	get_password@i+1,f
  5546     119F                     l4467:
  5547     119F  0822               	movf	get_password@i+1,w
  5548     11A0  3A80               	xorlw	128
  5549     11A1  00FF               	movwf	btemp+1
  5550     11A2  3080               	movlw	128
  5551     11A3  027F               	subwf	btemp+1,w
  5552     11A4  1D03               	skipz
  5553     11A5  29A8               	goto	u3715
  5554     11A6  3005               	movlw	5
  5555     11A7  0221               	subwf	get_password@i,w
  5556     11A8                     u3715:
  5557     11A8  1C03               	skipc
  5558     11A9  29AB               	goto	u3711
  5559     11AA  29AC               	goto	u3710
  5560     11AB                     u3711:
  5561     11AB  2988               	goto	l4463
  5562     11AC                     u3710:
  5563     11AC                     l314:
  5564     11AC  0008               	return
  5565     11AD                     __end_of_get_password:
  5566                           
  5567                           	psect	text9
  5568     1521                     __ptext9:	
  5569 ;; *************** function _log_car_event *****************
  5570 ;; Defined at:
  5571 ;;		line 84 in file "display.c"
  5572 ;; Parameters:    Size  Location     Type
  5573 ;;  event           2    4[BANK0 ] PTR unsigned char 
  5574 ;;		 -> STR_13(3), STR_12(3), STR_11(3), STR_10(3), 
  5575 ;;		 -> main@event(3), 
  5576 ;;  speed           1    6[BANK0 ] unsigned char 
  5577 ;; Auto vars:     Size  Location     Type
  5578 ;;		None
  5579 ;; Return value:  Size  Location     Type
  5580 ;;                  1    wreg      void 
  5581 ;; Registers used:
  5582 ;;		wreg, fsr0l, fsr0h, status,2, status,0, btemp+1, pclath, cstack
  5583 ;; Tracked objects:
  5584 ;;		On entry : 0/0
  5585 ;;		On exit  : 0/0
  5586 ;;		Unchanged: 0/0
  5587 ;; Data sizes:     COMMON   BANK0   BANK1   BANK3   BANK2
  5588 ;;      Params:         0       3       0       0       0
  5589 ;;      Locals:         0       0       0       0       0
  5590 ;;      Temps:          0       2       0       0       0
  5591 ;;      Totals:         0       5       0       0       0
  5592 ;;Total ram usage:        5 bytes
  5593 ;; Hardware stack levels used: 1
  5594 ;; Hardware stack levels required when called: 6
  5595 ;; This function calls:
  5596 ;;		___awdiv
  5597 ;;		___awmod
  5598 ;;		_get_time
  5599 ;;		_log_event
  5600 ;;		_strncpy
  5601 ;; This function is called by:
  5602 ;;		_main
  5603 ;; This function uses a non-reentrant model
  5604 ;;
  5605                           
  5606     1521                     _log_car_event:	
  5607                           ;psect for function _log_car_event
  5608                           
  5609     1521                     l4675:	
  5610                           ;incstack = 0
  5611                           ; Regs used in _log_car_event: [wreg-fsr0h+status,2+status,0+btemp+1+pclath+cstack]
  5612                           
  5613                           
  5614                           ;display.c: 84:  log[10] = '\0';;display.c: 85: ;display.c: 87: }
  5615     1521  160A  118A  25DB  160A  118A  	fcall	_get_time
  5616     1526                     l4677:
  5617                           
  5618                           ;display.c: 88: 
  5619     1526  30B8               	movlw	(low (_time| 0))& (0+255)
  5620     1527  00F3               	movwf	strncpy@s
  5621     1528  3000               	movlw	0
  5622     1529  00F4               	movwf	strncpy@s+1
  5623     152A  3006               	movlw	6
  5624     152B  00F5               	movwf	strncpy@n
  5625     152C  3000               	movlw	0
  5626     152D  00F6               	movwf	strncpy@n+1
  5627     152E  30A4               	movlw	(low (_log| 0))& (0+255)
  5628     152F  120A  118A  27B7  160A  118A  	fcall	_strncpy
  5629     1534                     l4679:
  5630                           
  5631                           ;display.c: 89: void get_password(char *spassword)
  5632     1534  1283               	bcf	3,5	;RP0=0, select bank0
  5633     1535  1303               	bcf	3,6	;RP1=0, select bank0
  5634     1536  0824               	movf	log_car_event@event,w
  5635     1537  00F3               	movwf	strncpy@s
  5636     1538  0825               	movf	log_car_event@event+1,w
  5637     1539  00F4               	movwf	strncpy@s+1
  5638     153A  3002               	movlw	2
  5639     153B  00F5               	movwf	strncpy@n
  5640     153C  3000               	movlw	0
  5641     153D  00F6               	movwf	strncpy@n+1
  5642     153E  30AA               	movlw	(low ((_log| 0+6)))& (0+255)
  5643     153F  120A  118A  27B7  160A  118A  	fcall	_strncpy
  5644     1544                     l4681:
  5645                           
  5646                           ;display.c: 90: {
  5647     1544  300A               	movlw	10
  5648     1545  00F3               	movwf	___awdiv@divisor
  5649     1546  3000               	movlw	0
  5650     1547  00F4               	movwf	___awdiv@divisor+1
  5651     1548  1283               	bcf	3,5	;RP0=0, select bank0
  5652     1549  1303               	bcf	3,6	;RP1=0, select bank0
  5653     154A  0826               	movf	log_car_event@speed,w
  5654     154B  00A7               	movwf	??_log_car_event
  5655     154C  01A8               	clrf	??_log_car_event+1
  5656     154D  0827               	movf	??_log_car_event,w
  5657     154E  00F5               	movwf	___awdiv@dividend
  5658     154F  0828               	movf	??_log_car_event+1,w
  5659     1550  00F6               	movwf	___awdiv@dividend+1
  5660     1551  160A  118A  26A6  160A  118A  	fcall	___awdiv
  5661     1556  0873               	movf	?___awdiv,w
  5662     1557  3E30               	addlw	48
  5663     1558  1683               	bsf	3,5	;RP0=1, select bank1
  5664     1559  1303               	bcf	3,6	;RP1=0, select bank1
  5665     155A  00AC               	movwf	(_log^(0+128)+8)
  5666     155B                     l4683:
  5667                           
  5668                           ;display.c: 91: 
  5669     155B  300A               	movlw	10
  5670     155C  00F3               	movwf	___awmod@divisor
  5671     155D  3000               	movlw	0
  5672     155E  00F4               	movwf	___awmod@divisor+1
  5673     155F  1283               	bcf	3,5	;RP0=0, select bank0
  5674     1560  1303               	bcf	3,6	;RP1=0, select bank0
  5675     1561  0826               	movf	log_car_event@speed,w
  5676     1562  00A7               	movwf	??_log_car_event
  5677     1563  01A8               	clrf	??_log_car_event+1
  5678     1564  0827               	movf	??_log_car_event,w
  5679     1565  00F5               	movwf	___awmod@dividend
  5680     1566  0828               	movf	??_log_car_event+1,w
  5681     1567  00F6               	movwf	___awmod@dividend+1
  5682     1568  120A  158A  2193  160A  118A  	fcall	___awmod
  5683     156D  0873               	movf	?___awmod,w
  5684     156E  3E30               	addlw	48
  5685     156F  1683               	bsf	3,5	;RP0=1, select bank1
  5686     1570  1303               	bcf	3,6	;RP1=0, select bank1
  5687     1571  00AD               	movwf	(_log^(0+128)+9)
  5688     1572                     l4685:
  5689                           
  5690                           ;display.c: 92:     for(int i = 0 ; i < 5;i++)
  5691     1572  01AE               	clrf	(_log^(0+128)+10)
  5692     1573                     l4687:
  5693                           
  5694                           ;display.c: 94:         spassword[i]=ext_eeprom_24C02_read(i);
  5695     1573  160A  118A  23A8  160A  118A  	fcall	_log_event
  5696     1578                     l309:
  5697     1578  0008               	return
  5698     1579                     __end_of_log_car_event:
  5699                           
  5700                           	psect	text10
  5701     13A8                     __ptext10:	
  5702 ;; *************** function _log_event *****************
  5703 ;; Defined at:
  5704 ;;		line 66 in file "display.c"
  5705 ;; Parameters:    Size  Location     Type
  5706 ;;		None
  5707 ;; Auto vars:     Size  Location     Type
  5708 ;;  add             1    8[COMMON] unsigned char 
  5709 ;; Return value:  Size  Location     Type
  5710 ;;                  1    wreg      void 
  5711 ;; Registers used:
  5712 ;;		wreg, fsr0l, fsr0h, status,2, status,0, btemp+1, pclath, cstack
  5713 ;; Tracked objects:
  5714 ;;		On entry : 0/0
  5715 ;;		On exit  : 0/0
  5716 ;;		Unchanged: 0/0
  5717 ;; Data sizes:     COMMON   BANK0   BANK1   BANK3   BANK2
  5718 ;;      Params:         0       0       0       0       0
  5719 ;;      Locals:         1       0       0       0       0
  5720 ;;      Temps:          0       0       0       0       0
  5721 ;;      Totals:         1       0       0       0       0
  5722 ;;Total ram usage:        1 bytes
  5723 ;; Hardware stack levels used: 1
  5724 ;; Hardware stack levels required when called: 5
  5725 ;; This function calls:
  5726 ;;		___bmul
  5727 ;;		_ext_eeprom_24C02_str_write
  5728 ;; This function is called by:
  5729 ;;		_log_car_event
  5730 ;; This function uses a non-reentrant model
  5731 ;;
  5732                           
  5733     13A8                     _log_event:	
  5734                           ;psect for function _log_event
  5735                           
  5736     13A8                     l4427:	
  5737                           ;incstack = 0
  5738                           ; Regs used in _log_event: [wreg-fsr0h+status,2+status,0+btemp+1+pclath+cstack]
  5739                           
  5740                           
  5741                           ;display.c: 69:  add = (pos * 10) + 5;;display.c: 71: 
  5742     13A8  3001               	movlw	1
  5743     13A9  1283               	bcf	3,5	;RP0=0, select bank0
  5744     13AA  1303               	bcf	3,6	;RP1=0, select bank0
  5745     13AB  07E6               	addwf	_pos,f
  5746     13AC  1803               	skipnc
  5747     13AD  0AE7               	incf	_pos+1,f
  5748     13AE  3000               	movlw	0
  5749     13AF  07E7               	addwf	_pos+1,f
  5750     13B0  300A               	movlw	10
  5751     13B1  0666               	xorwf	_pos,w
  5752     13B2  0467               	iorwf	_pos+1,w
  5753     13B3  1D03               	btfss	3,2
  5754     13B4  2BB6               	goto	u3661
  5755     13B5  2BB7               	goto	u3660
  5756     13B6                     u3661:
  5757     13B6  2BBB               	goto	l4433
  5758     13B7                     u3660:
  5759     13B7                     l4429:
  5760                           
  5761                           ;display.c: 72:  if (access < 9 );display.c: 73:   access++;
  5762     13B7  01E6               	clrf	_pos
  5763     13B8  01E7               	clrf	_pos+1
  5764     13B9                     l4431:
  5765                           
  5766                           ;display.c: 74: }
  5767     13B9  01DF               	clrf	_overflow
  5768     13BA  0ADF               	incf	_overflow,f
  5769     13BB                     l4433:
  5770                           
  5771                           ;display.c: 77: {
  5772     13BB  300A               	movlw	10
  5773     13BC  00F3               	movwf	___bmul@multiplicand
  5774     13BD  0866               	movf	_pos,w
  5775     13BE  160A  118A  206D  160A  118A  	fcall	___bmul
  5776     13C3  3E05               	addlw	5
  5777     13C4  00F8               	movwf	log_event@add
  5778     13C5                     l4435:
  5779                           
  5780                           ;display.c: 78: 
  5781     13C5  30A4               	movlw	(low (_log| 0))& (0+255)
  5782     13C6  00F6               	movwf	ext_eeprom_24C02_str_write@data
  5783     13C7  0878               	movf	log_event@add,w
  5784     13C8  160A  118A  209B  160A  118A  	fcall	_ext_eeprom_24C02_str_write
  5785     13CD                     l4437:
  5786                           
  5787                           ;display.c: 80:  strncpy( log , time , 6 );
  5788     13CD  1283               	bcf	3,5	;RP0=0, select bank0
  5789     13CE  1303               	bcf	3,6	;RP1=0, select bank0
  5790     13CF  0865               	movf	_access+1,w
  5791     13D0  3A80               	xorlw	128
  5792     13D1  00FF               	movwf	btemp+1
  5793     13D2  3080               	movlw	128
  5794     13D3  027F               	subwf	btemp+1,w
  5795     13D4  1D03               	skipz
  5796     13D5  2BD8               	goto	u3675
  5797     13D6  3009               	movlw	9
  5798     13D7  0264               	subwf	_access,w
  5799     13D8                     u3675:
  5800     13D8  1803               	skipnc
  5801     13D9  2BDB               	goto	u3671
  5802     13DA  2BDC               	goto	u3670
  5803     13DB                     u3671:
  5804     13DB  2BE4               	goto	l306
  5805     13DC                     u3670:
  5806     13DC                     l4439:
  5807                           
  5808                           ;display.c: 81:  strncpy( &log[6], event, 2 );
  5809     13DC  3001               	movlw	1
  5810     13DD  1283               	bcf	3,5	;RP0=0, select bank0
  5811     13DE  1303               	bcf	3,6	;RP1=0, select bank0
  5812     13DF  07E4               	addwf	_access,f
  5813     13E0  1803               	skipnc
  5814     13E1  0AE5               	incf	_access+1,f
  5815     13E2  3000               	movlw	0
  5816     13E3  07E5               	addwf	_access+1,f
  5817     13E4                     l306:
  5818     13E4  0008               	return
  5819     13E5                     __end_of_log_event:
  5820                           
  5821                           	psect	text11
  5822     136E                     __ptext11:	
  5823 ;; *************** function _init_config *****************
  5824 ;; Defined at:
  5825 ;;		line 11 in file "main.c"
  5826 ;; Parameters:    Size  Location     Type
  5827 ;;		None
  5828 ;; Auto vars:     Size  Location     Type
  5829 ;;		None
  5830 ;; Return value:  Size  Location     Type
  5831 ;;                  1    wreg      void 
  5832 ;; Registers used:
  5833 ;;		wreg, status,2, status,0, btemp+1, pclath, cstack
  5834 ;; Tracked objects:
  5835 ;;		On entry : 0/0
  5836 ;;		On exit  : 0/0
  5837 ;;		Unchanged: 0/0
  5838 ;; Data sizes:     COMMON   BANK0   BANK1   BANK3   BANK2
  5839 ;;      Params:         0       0       0       0       0
  5840 ;;      Locals:         0       0       0       0       0
  5841 ;;      Temps:          0       0       0       0       0
  5842 ;;      Totals:         0       0       0       0       0
  5843 ;;Total ram usage:        0 bytes
  5844 ;; Hardware stack levels used: 1
  5845 ;; Hardware stack levels required when called: 5
  5846 ;; This function calls:
  5847 ;;		_init_adc
  5848 ;;		_init_clcd
  5849 ;;		_init_digital_keypad
  5850 ;;		_init_ds1307
  5851 ;;		_init_i2c
  5852 ;;		_init_timer2
  5853 ;;		_init_uart
  5854 ;; This function is called by:
  5855 ;;		_main
  5856 ;; This function uses a non-reentrant model
  5857 ;;
  5858                           
  5859     136E                     _init_config:	
  5860                           ;psect for function _init_config
  5861                           
  5862     136E                     l4657:	
  5863                           ;incstack = 0
  5864                           ; Regs used in _init_config: [wreg+status,2+status,0+btemp+1+pclath+cstack]
  5865                           
  5866                           
  5867                           ;main.c: 12:     PEIE = 1;
  5868     136E  160A  158A  27E8  160A  118A  	fcall	_init_clcd
  5869     1373                     l4659:
  5870                           
  5871                           ;main.c: 13: 
  5872     1373  3000               	movlw	0
  5873     1374  1283               	bcf	3,5	;RP0=0, select bank0
  5874     1375  1303               	bcf	3,6	;RP1=0, select bank0
  5875     1376  00AB               	movwf	init_i2c@baud+3
  5876     1377  3001               	movlw	1
  5877     1378  00AA               	movwf	init_i2c@baud+2
  5878     1379  3086               	movlw	134
  5879     137A  00A9               	movwf	init_i2c@baud+1
  5880     137B  30A0               	movlw	160
  5881     137C  00A8               	movwf	init_i2c@baud
  5882     137D  160A  118A  2292  160A  118A  	fcall	_init_i2c
  5883     1382                     l4661:
  5884                           
  5885                           ;main.c: 14: }
  5886     1382  160A  118A  2032  160A  118A  	fcall	_init_ds1307
  5887     1387                     l4663:
  5888                           
  5889                           ;main.c: 15: 
  5890     1387  160A  158A  27A0  160A  118A  	fcall	_init_adc
  5891     138C                     l4665:
  5892                           
  5893                           ;main.c: 16: void main(void) {
  5894     138C  160A  158A  279A  160A  118A  	fcall	_init_digital_keypad
  5895     1391                     l4667:
  5896                           
  5897                           ;main.c: 17:     char event[3] = "ON";
  5898     1391  160A  118A  2013  160A  118A  	fcall	_init_timer2
  5899     1396                     l4669:
  5900                           
  5901                           ;main.c: 18:     char key, key1;
  5902     1396  3000               	movlw	0
  5903     1397  1283               	bcf	3,5	;RP0=0, select bank0
  5904     1398  1303               	bcf	3,6	;RP1=0, select bank0
  5905     1399  00AB               	movwf	init_uart@baud+3
  5906     139A  3000               	movlw	0
  5907     139B  00AA               	movwf	init_uart@baud+2
  5908     139C  3025               	movlw	37
  5909     139D  00A9               	movwf	init_uart@baud+1
  5910     139E  3080               	movlw	128
  5911     139F  00A8               	movwf	init_uart@baud
  5912     13A0  160A  118A  22FC  160A  118A  	fcall	_init_uart
  5913     13A5                     l4671:
  5914                           
  5915                           ;main.c: 20:     char control_flag = 0x01;
  5916     13A5  178B               	bsf	11,7	;volatile
  5917     13A6                     l4673:
  5918                           
  5919                           ;main.c: 22:     char reset_flag;
  5920     13A6  170B               	bsf	11,6	;volatile
  5921     13A7                     l59:
  5922     13A7  0008               	return
  5923     13A8                     __end_of_init_config:
  5924                           
  5925                           	psect	text12
  5926     12FC                     __ptext12:	
  5927 ;; *************** function _init_uart *****************
  5928 ;; Defined at:
  5929 ;;		line 4 in file "uart.c"
  5930 ;; Parameters:    Size  Location     Type
  5931 ;;  baud            4    8[BANK0 ] unsigned long 
  5932 ;; Auto vars:     Size  Location     Type
  5933 ;;		None
  5934 ;; Return value:  Size  Location     Type
  5935 ;;                  1    wreg      void 
  5936 ;; Registers used:
  5937 ;;		wreg, status,2, status,0, btemp+1, pclath, cstack
  5938 ;; Tracked objects:
  5939 ;;		On entry : 0/0
  5940 ;;		On exit  : 0/0
  5941 ;;		Unchanged: 0/0
  5942 ;; Data sizes:     COMMON   BANK0   BANK1   BANK3   BANK2
  5943 ;;      Params:         0       4       0       0       0
  5944 ;;      Locals:         0       0       0       0       0
  5945 ;;      Temps:          0       4       0       0       0
  5946 ;;      Totals:         0       8       0       0       0
  5947 ;;Total ram usage:        8 bytes
  5948 ;; Hardware stack levels used: 1
  5949 ;; Hardware stack levels required when called: 2
  5950 ;; This function calls:
  5951 ;;		___lldiv
  5952 ;; This function is called by:
  5953 ;;		_init_config
  5954 ;; This function uses a non-reentrant model
  5955 ;;
  5956                           
  5957     12FC                     _init_uart:	
  5958                           ;psect for function _init_uart
  5959                           
  5960     12FC                     l4413:	
  5961                           ;incstack = 0
  5962                           ; Regs used in _init_uart: [wreg+status,2+status,0+btemp+1+pclath+cstack]
  5963                           
  5964                           
  5965                           ;uart.c: 4: void init_uart(unsigned long baud);uart.c: 5: {;uart.c: 7:     SPEN = 1;
  5966     12FC  1283               	bcf	3,5	;RP0=0, select bank0
  5967     12FD  1303               	bcf	3,6	;RP1=0, select bank0
  5968     12FE  1798               	bsf	24,7	;volatile
  5969                           
  5970                           ;uart.c: 10:     BRGH = 1;
  5971     12FF  1683               	bsf	3,5	;RP0=1, select bank1
  5972     1300  1303               	bcf	3,6	;RP1=0, select bank1
  5973     1301  1518               	bsf	24,2	;volatile
  5974                           
  5975                           ;uart.c: 13:     TXEN = 1;
  5976     1302  1698               	bsf	24,5	;volatile
  5977                           
  5978                           ;uart.c: 16:     CREN = 1;
  5979     1303  1283               	bcf	3,5	;RP0=0, select bank0
  5980     1304  1303               	bcf	3,6	;RP1=0, select bank0
  5981     1305  1618               	bsf	24,4	;volatile
  5982     1306                     l4415:
  5983                           
  5984                           ;uart.c: 19:     SPBRG = (20000000 / (16 * baud)) - 1;
  5985     1306  0828               	movf	init_uart@baud,w
  5986     1307  00AC               	movwf	??_init_uart
  5987     1308  0829               	movf	init_uart@baud+1,w
  5988     1309  00AD               	movwf	??_init_uart+1
  5989     130A  082A               	movf	init_uart@baud+2,w
  5990     130B  00AE               	movwf	??_init_uart+2
  5991     130C  082B               	movf	init_uart@baud+3,w
  5992     130D  00AF               	movwf	??_init_uart+3
  5993     130E  3004               	movlw	4
  5994     130F                     u3645:
  5995     130F  1003               	clrc
  5996     1310  0DAC               	rlf	??_init_uart,f
  5997     1311  0DAD               	rlf	??_init_uart+1,f
  5998     1312  0DAE               	rlf	??_init_uart+2,f
  5999     1313  0DAF               	rlf	??_init_uart+3,f
  6000     1314                     u3640:
  6001     1314  3EFF               	addlw	-1
  6002     1315  1D03               	skipz
  6003     1316  2B0F               	goto	u3645
  6004     1317  082F               	movf	??_init_uart+3,w
  6005     1318  00A3               	movwf	___lldiv@divisor+3
  6006     1319  082E               	movf	??_init_uart+2,w
  6007     131A  00A2               	movwf	___lldiv@divisor+2
  6008     131B  082D               	movf	??_init_uart+1,w
  6009     131C  00A1               	movwf	___lldiv@divisor+1
  6010     131D  082C               	movf	??_init_uart,w
  6011     131E  00A0               	movwf	___lldiv@divisor
  6012     131F  3001               	movlw	1
  6013     1320  00A7               	movwf	___lldiv@dividend+3
  6014     1321  3031               	movlw	49
  6015     1322  00A6               	movwf	___lldiv@dividend+2
  6016     1323  302D               	movlw	45
  6017     1324  00A5               	movwf	___lldiv@dividend+1
  6018     1325  3000               	movlw	0
  6019     1326  00A4               	movwf	___lldiv@dividend
  6020     1327  160A  118A  263E  160A  118A  	fcall	___lldiv
  6021     132C  1283               	bcf	3,5	;RP0=0, select bank0
  6022     132D  1303               	bcf	3,6	;RP1=0, select bank0
  6023     132E  0820               	movf	?___lldiv,w
  6024     132F  3EFF               	addlw	255
  6025     1330  1683               	bsf	3,5	;RP0=1, select bank1
  6026     1331  1303               	bcf	3,6	;RP1=0, select bank1
  6027     1332  0099               	movwf	25	;volatile
  6028     1333                     l546:
  6029     1333  0008               	return
  6030     1334                     __end_of_init_uart:
  6031                           
  6032                           	psect	text13
  6033     1013                     __ptext13:	
  6034 ;; *************** function _init_timer2 *****************
  6035 ;; Defined at:
  6036 ;;		line 7 in file "timer2.c"
  6037 ;; Parameters:    Size  Location     Type
  6038 ;;		None
  6039 ;; Auto vars:     Size  Location     Type
  6040 ;;		None
  6041 ;; Return value:  Size  Location     Type
  6042 ;;                  1    wreg      void 
  6043 ;; Registers used:
  6044 ;;		wreg
  6045 ;; Tracked objects:
  6046 ;;		On entry : 0/0
  6047 ;;		On exit  : 0/0
  6048 ;;		Unchanged: 0/0
  6049 ;; Data sizes:     COMMON   BANK0   BANK1   BANK3   BANK2
  6050 ;;      Params:         0       0       0       0       0
  6051 ;;      Locals:         0       0       0       0       0
  6052 ;;      Temps:          0       0       0       0       0
  6053 ;;      Totals:         0       0       0       0       0
  6054 ;;Total ram usage:        0 bytes
  6055 ;; Hardware stack levels used: 1
  6056 ;; Hardware stack levels required when called: 1
  6057 ;; This function calls:
  6058 ;;		Nothing
  6059 ;; This function is called by:
  6060 ;;		_init_config
  6061 ;; This function uses a non-reentrant model
  6062 ;;
  6063                           
  6064     1013                     _init_timer2:	
  6065                           ;psect for function _init_timer2
  6066                           
  6067     1013                     l4405:	
  6068                           ;incstack = 0
  6069                           ; Regs used in _init_timer2: [wreg]
  6070                           
  6071                           
  6072                           ;timer2.c: 10: 
  6073     1013  1283               	bcf	3,5	;RP0=0, select bank0
  6074     1014  1303               	bcf	3,6	;RP1=0, select bank0
  6075     1015  1412               	bsf	18,0	;volatile
  6076                           
  6077                           ;timer2.c: 11: 
  6078     1016  1492               	bsf	18,1	;volatile
  6079     1017                     l4407:
  6080     1017  30FA               	movlw	250
  6081     1018  1683               	bsf	3,5	;RP0=1, select bank1
  6082     1019  1303               	bcf	3,6	;RP1=0, select bank1
  6083     101A  0092               	movwf	18	;volatile
  6084     101B                     l4409:
  6085     101B  148C               	bsf	12,1	;volatile
  6086     101C                     l4411:
  6087     101C  1283               	bcf	3,5	;RP0=0, select bank0
  6088     101D  1303               	bcf	3,6	;RP1=0, select bank0
  6089     101E  1112               	bcf	18,2	;volatile
  6090     101F                     l512:
  6091     101F  0008               	return
  6092     1020                     __end_of_init_timer2:
  6093                           
  6094                           	psect	text14
  6095     1292                     __ptext14:	
  6096 ;; *************** function _init_i2c *****************
  6097 ;; Defined at:
  6098 ;;		line 8 in file "i2c.c"
  6099 ;; Parameters:    Size  Location     Type
  6100 ;;  baud            4    8[BANK0 ] unsigned long 
  6101 ;; Auto vars:     Size  Location     Type
  6102 ;;		None
  6103 ;; Return value:  Size  Location     Type
  6104 ;;                  1    wreg      void 
  6105 ;; Registers used:
  6106 ;;		wreg, status,2, status,0, btemp+1, pclath, cstack
  6107 ;; Tracked objects:
  6108 ;;		On entry : 0/0
  6109 ;;		On exit  : 0/0
  6110 ;;		Unchanged: 0/0
  6111 ;; Data sizes:     COMMON   BANK0   BANK1   BANK3   BANK2
  6112 ;;      Params:         0       4       0       0       0
  6113 ;;      Locals:         0       0       0       0       0
  6114 ;;      Temps:          0       4       0       0       0
  6115 ;;      Totals:         0       8       0       0       0
  6116 ;;Total ram usage:        8 bytes
  6117 ;; Hardware stack levels used: 1
  6118 ;; Hardware stack levels required when called: 2
  6119 ;; This function calls:
  6120 ;;		___lldiv
  6121 ;; This function is called by:
  6122 ;;		_init_config
  6123 ;; This function uses a non-reentrant model
  6124 ;;
  6125                           
  6126     1292                     _init_i2c:	
  6127                           ;psect for function _init_i2c
  6128                           
  6129     1292                     l4389:	
  6130                           ;incstack = 0
  6131                           ; Regs used in _init_i2c: [wreg+status,2+status,0+btemp+1+pclath+cstack]
  6132                           
  6133                           
  6134                           ;i2c.c: 8: void init_i2c(unsigned long baud);i2c.c: 9: {;i2c.c: 11:     SSPM3 = 1;
  6135     1292  1283               	bcf	3,5	;RP0=0, select bank0
  6136     1293  1303               	bcf	3,6	;RP1=0, select bank0
  6137     1294  1594               	bsf	20,3	;volatile
  6138     1295                     l4391:
  6139                           
  6140                           ;i2c.c: 14:     SSPADD = (20000000 / (4 * baud)) - 1;
  6141     1295  0828               	movf	init_i2c@baud,w
  6142     1296  00AC               	movwf	??_init_i2c
  6143     1297  0829               	movf	init_i2c@baud+1,w
  6144     1298  00AD               	movwf	??_init_i2c+1
  6145     1299  082A               	movf	init_i2c@baud+2,w
  6146     129A  00AE               	movwf	??_init_i2c+2
  6147     129B  082B               	movf	init_i2c@baud+3,w
  6148     129C  00AF               	movwf	??_init_i2c+3
  6149     129D  3002               	movlw	2
  6150     129E                     u3635:
  6151     129E  1003               	clrc
  6152     129F  0DAC               	rlf	??_init_i2c,f
  6153     12A0  0DAD               	rlf	??_init_i2c+1,f
  6154     12A1  0DAE               	rlf	??_init_i2c+2,f
  6155     12A2  0DAF               	rlf	??_init_i2c+3,f
  6156     12A3                     u3630:
  6157     12A3  3EFF               	addlw	-1
  6158     12A4  1D03               	skipz
  6159     12A5  2A9E               	goto	u3635
  6160     12A6  082F               	movf	??_init_i2c+3,w
  6161     12A7  00A3               	movwf	___lldiv@divisor+3
  6162     12A8  082E               	movf	??_init_i2c+2,w
  6163     12A9  00A2               	movwf	___lldiv@divisor+2
  6164     12AA  082D               	movf	??_init_i2c+1,w
  6165     12AB  00A1               	movwf	___lldiv@divisor+1
  6166     12AC  082C               	movf	??_init_i2c,w
  6167     12AD  00A0               	movwf	___lldiv@divisor
  6168     12AE  3001               	movlw	1
  6169     12AF  00A7               	movwf	___lldiv@dividend+3
  6170     12B0  3031               	movlw	49
  6171     12B1  00A6               	movwf	___lldiv@dividend+2
  6172     12B2  302D               	movlw	45
  6173     12B3  00A5               	movwf	___lldiv@dividend+1
  6174     12B4  3000               	movlw	0
  6175     12B5  00A4               	movwf	___lldiv@dividend
  6176     12B6  160A  118A  263E  160A  118A  	fcall	___lldiv
  6177     12BB  1283               	bcf	3,5	;RP0=0, select bank0
  6178     12BC  1303               	bcf	3,6	;RP1=0, select bank0
  6179     12BD  0820               	movf	?___lldiv,w
  6180     12BE  3EFF               	addlw	255
  6181     12BF  1683               	bsf	3,5	;RP0=1, select bank1
  6182     12C0  1303               	bcf	3,6	;RP1=0, select bank1
  6183     12C1  0093               	movwf	19	;volatile
  6184     12C2                     l4393:
  6185                           
  6186                           ;i2c.c: 17:     SSPEN = 1;
  6187     12C2  1283               	bcf	3,5	;RP0=0, select bank0
  6188     12C3  1303               	bcf	3,6	;RP1=0, select bank0
  6189     12C4  1694               	bsf	20,5	;volatile
  6190     12C5                     l225:
  6191     12C5  0008               	return
  6192     12C6                     __end_of_init_i2c:
  6193                           
  6194                           	psect	text15
  6195     163E                     __ptext15:	
  6196 ;; *************** function ___lldiv *****************
  6197 ;; Defined at:
  6198 ;;		line 5 in file "C:\Program Files\Microchip\xc8\v2.45\pic\sources\c99\common\__lldiv.c"
  6199 ;; Parameters:    Size  Location     Type
  6200 ;;  divisor         4    0[BANK0 ] unsigned long 
  6201 ;;  dividend        4    4[BANK0 ] unsigned long 
  6202 ;; Auto vars:     Size  Location     Type
  6203 ;;  quotient        4    4[COMMON] unsigned long 
  6204 ;;  counter         1    8[COMMON] unsigned char 
  6205 ;; Return value:  Size  Location     Type
  6206 ;;                  4    0[BANK0 ] unsigned long 
  6207 ;; Registers used:
  6208 ;;		wreg, status,2, status,0, btemp+1
  6209 ;; Tracked objects:
  6210 ;;		On entry : 0/0
  6211 ;;		On exit  : 0/0
  6212 ;;		Unchanged: 0/0
  6213 ;; Data sizes:     COMMON   BANK0   BANK1   BANK3   BANK2
  6214 ;;      Params:         0       8       0       0       0
  6215 ;;      Locals:         5       0       0       0       0
  6216 ;;      Temps:          1       0       0       0       0
  6217 ;;      Totals:         6       8       0       0       0
  6218 ;;Total ram usage:       14 bytes
  6219 ;; Hardware stack levels used: 1
  6220 ;; Hardware stack levels required when called: 1
  6221 ;; This function calls:
  6222 ;;		Nothing
  6223 ;; This function is called by:
  6224 ;;		_init_i2c
  6225 ;;		_init_uart
  6226 ;; This function uses a non-reentrant model
  6227 ;;
  6228                           
  6229     163E                     ___lldiv:	
  6230                           ;psect for function ___lldiv
  6231                           
  6232     163E                     l4355:	
  6233                           ;incstack = 0
  6234                           ; Regs used in ___lldiv: [wreg+status,2+status,0+btemp+1]
  6235                           
  6236     163E  3000               	movlw	0
  6237     163F  00F7               	movwf	___lldiv@quotient+3
  6238     1640  3000               	movlw	0
  6239     1641  00F6               	movwf	___lldiv@quotient+2
  6240     1642  3000               	movlw	0
  6241     1643  00F5               	movwf	___lldiv@quotient+1
  6242     1644  3000               	movlw	0
  6243     1645  00F4               	movwf	___lldiv@quotient
  6244     1646  1283               	bcf	3,5	;RP0=0, select bank0
  6245     1647  1303               	bcf	3,6	;RP1=0, select bank0
  6246     1648  0823               	movf	___lldiv@divisor+3,w
  6247     1649  0422               	iorwf	___lldiv@divisor+2,w
  6248     164A  0421               	iorwf	___lldiv@divisor+1,w
  6249     164B  0420               	iorwf	___lldiv@divisor,w
  6250     164C  1903               	skipnz
  6251     164D  2E4F               	goto	u3561
  6252     164E  2E50               	goto	u3560
  6253     164F                     u3561:
  6254     164F  2E9D               	goto	l4377
  6255     1650                     u3560:
  6256     1650                     l4357:
  6257     1650  01F8               	clrf	___lldiv@counter
  6258     1651  0AF8               	incf	___lldiv@counter,f
  6259     1652  2E60               	goto	l4363
  6260     1653                     l4359:
  6261     1653  3001               	movlw	1
  6262     1654  00F3               	movwf	??___lldiv
  6263     1655                     u3575:
  6264     1655  1003               	clrc
  6265     1656  0DA0               	rlf	___lldiv@divisor,f
  6266     1657  0DA1               	rlf	___lldiv@divisor+1,f
  6267     1658  0DA2               	rlf	___lldiv@divisor+2,f
  6268     1659  0DA3               	rlf	___lldiv@divisor+3,f
  6269     165A  0BF3               	decfsz	??___lldiv,f
  6270     165B  2E55               	goto	u3575
  6271     165C                     l4361:
  6272     165C  3001               	movlw	1
  6273     165D  00FF               	movwf	btemp+1
  6274     165E  087F               	movf	btemp+1,w
  6275     165F  07F8               	addwf	___lldiv@counter,f
  6276     1660                     l4363:
  6277     1660  1FA3               	btfss	___lldiv@divisor+3,7
  6278     1661  2E63               	goto	u3581
  6279     1662  2E64               	goto	u3580
  6280     1663                     u3581:
  6281     1663  2E53               	goto	l4359
  6282     1664                     u3580:
  6283     1664                     l4365:
  6284     1664  3001               	movlw	1
  6285     1665  00F3               	movwf	??___lldiv
  6286     1666                     u3595:
  6287     1666  1003               	clrc
  6288     1667  0DF4               	rlf	___lldiv@quotient,f
  6289     1668  0DF5               	rlf	___lldiv@quotient+1,f
  6290     1669  0DF6               	rlf	___lldiv@quotient+2,f
  6291     166A  0DF7               	rlf	___lldiv@quotient+3,f
  6292     166B  0BF3               	decfsz	??___lldiv,f
  6293     166C  2E66               	goto	u3595
  6294     166D                     l4367:
  6295     166D  0823               	movf	___lldiv@divisor+3,w
  6296     166E  0227               	subwf	___lldiv@dividend+3,w
  6297     166F  1D03               	skipz
  6298     1670  2E7B               	goto	u3605
  6299     1671  0822               	movf	___lldiv@divisor+2,w
  6300     1672  0226               	subwf	___lldiv@dividend+2,w
  6301     1673  1D03               	skipz
  6302     1674  2E7B               	goto	u3605
  6303     1675  0821               	movf	___lldiv@divisor+1,w
  6304     1676  0225               	subwf	___lldiv@dividend+1,w
  6305     1677  1D03               	skipz
  6306     1678  2E7B               	goto	u3605
  6307     1679  0820               	movf	___lldiv@divisor,w
  6308     167A  0224               	subwf	___lldiv@dividend,w
  6309     167B                     u3605:
  6310     167B  1C03               	skipc
  6311     167C  2E7E               	goto	u3601
  6312     167D  2E7F               	goto	u3600
  6313     167E                     u3601:
  6314     167E  2E8E               	goto	l4373
  6315     167F                     u3600:
  6316     167F                     l4369:
  6317     167F  0820               	movf	___lldiv@divisor,w
  6318     1680  02A4               	subwf	___lldiv@dividend,f
  6319     1681  0821               	movf	___lldiv@divisor+1,w
  6320     1682  1C03               	skipc
  6321     1683  0F21               	incfsz	___lldiv@divisor+1,w
  6322     1684  02A5               	subwf	___lldiv@dividend+1,f
  6323     1685  0822               	movf	___lldiv@divisor+2,w
  6324     1686  1C03               	skipc
  6325     1687  0F22               	incfsz	___lldiv@divisor+2,w
  6326     1688  02A6               	subwf	___lldiv@dividend+2,f
  6327     1689  0823               	movf	___lldiv@divisor+3,w
  6328     168A  1C03               	skipc
  6329     168B  0F23               	incfsz	___lldiv@divisor+3,w
  6330     168C  02A7               	subwf	___lldiv@dividend+3,f
  6331     168D                     l4371:
  6332     168D  1474               	bsf	___lldiv@quotient,0
  6333     168E                     l4373:
  6334     168E  3001               	movlw	1
  6335     168F                     u3615:
  6336     168F  1003               	clrc
  6337     1690  0CA3               	rrf	___lldiv@divisor+3,f
  6338     1691  0CA2               	rrf	___lldiv@divisor+2,f
  6339     1692  0CA1               	rrf	___lldiv@divisor+1,f
  6340     1693  0CA0               	rrf	___lldiv@divisor,f
  6341     1694  3EFF               	addlw	-1
  6342     1695  1D03               	skipz
  6343     1696  2E8F               	goto	u3615
  6344     1697                     l4375:
  6345     1697  3001               	movlw	1
  6346     1698  02F8               	subwf	___lldiv@counter,f
  6347     1699  1D03               	btfss	3,2
  6348     169A  2E9C               	goto	u3621
  6349     169B  2E9D               	goto	u3620
  6350     169C                     u3621:
  6351     169C  2E64               	goto	l4365
  6352     169D                     u3620:
  6353     169D                     l4377:
  6354     169D  0877               	movf	___lldiv@quotient+3,w
  6355     169E  00A3               	movwf	?___lldiv+3
  6356     169F  0876               	movf	___lldiv@quotient+2,w
  6357     16A0  00A2               	movwf	?___lldiv+2
  6358     16A1  0875               	movf	___lldiv@quotient+1,w
  6359     16A2  00A1               	movwf	?___lldiv+1
  6360     16A3  0874               	movf	___lldiv@quotient,w
  6361     16A4  00A0               	movwf	?___lldiv
  6362     16A5                     l680:
  6363     16A5  0008               	return
  6364     16A6                     __end_of___lldiv:
  6365                           
  6366                           	psect	text16
  6367     1032                     __ptext16:	
  6368 ;; *************** function _init_ds1307 *****************
  6369 ;; Defined at:
  6370 ;;		line 6 in file "d1307.c"
  6371 ;; Parameters:    Size  Location     Type
  6372 ;;		None
  6373 ;; Auto vars:     Size  Location     Type
  6374 ;;  dummy           1    7[COMMON] unsigned char 
  6375 ;; Return value:  Size  Location     Type
  6376 ;;                  1    wreg      void 
  6377 ;; Registers used:
  6378 ;;		wreg, status,2, status,0, pclath, cstack
  6379 ;; Tracked objects:
  6380 ;;		On entry : 0/0
  6381 ;;		On exit  : 0/0
  6382 ;;		Unchanged: 0/0
  6383 ;; Data sizes:     COMMON   BANK0   BANK1   BANK3   BANK2
  6384 ;;      Params:         0       0       0       0       0
  6385 ;;      Locals:         1       0       0       0       0
  6386 ;;      Temps:          0       0       0       0       0
  6387 ;;      Totals:         1       0       0       0       0
  6388 ;;Total ram usage:        1 bytes
  6389 ;; Hardware stack levels used: 1
  6390 ;; Hardware stack levels required when called: 4
  6391 ;; This function calls:
  6392 ;;		_read_ds1307
  6393 ;;		_write_ds1307
  6394 ;; This function is called by:
  6395 ;;		_init_config
  6396 ;; This function uses a non-reentrant model
  6397 ;;
  6398                           
  6399     1032                     _init_ds1307:	
  6400                           ;psect for function _init_ds1307
  6401                           
  6402     1032                     l4395:	
  6403                           ;incstack = 0
  6404                           ; Regs used in _init_ds1307: [wreg+status,2+status,0+pclath+cstack]
  6405                           
  6406                           
  6407                           ;d1307.c: 8:     unsigned char dummy;;d1307.c: 10:     dummy = read_ds1307(0x00);
  6408     1032  3000               	movlw	0
  6409     1033  160A  118A  21AD  160A  118A  	fcall	_read_ds1307
  6410     1038  00F7               	movwf	init_ds1307@dummy
  6411     1039                     l4397:
  6412                           
  6413                           ;d1307.c: 11:     dummy = dummy & 0x7F;
  6414     1039  0877               	movf	init_ds1307@dummy,w
  6415     103A  397F               	andlw	127
  6416     103B  00F7               	movwf	init_ds1307@dummy
  6417     103C                     l4399:
  6418                           
  6419                           ;d1307.c: 12:     write_ds1307(0x00, dummy);
  6420     103C  0877               	movf	init_ds1307@dummy,w
  6421     103D  00F4               	movwf	write_ds1307@data
  6422     103E  3000               	movlw	0
  6423     103F  160A  118A  20D6  160A  118A  	fcall	_write_ds1307
  6424     1044                     l190:
  6425     1044  0008               	return
  6426     1045                     __end_of_init_ds1307:
  6427                           
  6428                           	psect	text17
  6429     1F9A                     __ptext17:	
  6430 ;; *************** function _init_digital_keypad *****************
  6431 ;; Defined at:
  6432 ;;		line 8 in file "digital_keypad.c"
  6433 ;; Parameters:    Size  Location     Type
  6434 ;;		None
  6435 ;; Auto vars:     Size  Location     Type
  6436 ;;		None
  6437 ;; Return value:  Size  Location     Type
  6438 ;;                  1    wreg      void 
  6439 ;; Registers used:
  6440 ;;		wreg, status,2
  6441 ;; Tracked objects:
  6442 ;;		On entry : 0/0
  6443 ;;		On exit  : 0/0
  6444 ;;		Unchanged: 0/0
  6445 ;; Data sizes:     COMMON   BANK0   BANK1   BANK3   BANK2
  6446 ;;      Params:         0       0       0       0       0
  6447 ;;      Locals:         0       0       0       0       0
  6448 ;;      Temps:          0       0       0       0       0
  6449 ;;      Totals:         0       0       0       0       0
  6450 ;;Total ram usage:        0 bytes
  6451 ;; Hardware stack levels used: 1
  6452 ;; Hardware stack levels required when called: 1
  6453 ;; This function calls:
  6454 ;;		Nothing
  6455 ;; This function is called by:
  6456 ;;		_init_config
  6457 ;; This function uses a non-reentrant model
  6458 ;;
  6459                           
  6460     1F9A                     _init_digital_keypad:	
  6461                           ;psect for function _init_digital_keypad
  6462                           
  6463     1F9A                     l4403:	
  6464                           ;incstack = 0
  6465                           ; Regs used in _init_digital_keypad: [wreg+status,2]
  6466                           
  6467                           
  6468                           ;digital_keypad.c: 11:  static unsigned char pre_key ;
  6469     1F9A  1683               	bsf	3,5	;RP0=1, select bank1
  6470     1F9B  1303               	bcf	3,6	;RP1=0, select bank1
  6471     1F9C  0806               	movf	6,w	;volatile
  6472     1F9D  383F               	iorlw	63
  6473     1F9E  0086               	movwf	6	;volatile
  6474     1F9F                     l480:
  6475     1F9F  0008               	return
  6476     1FA0                     __end_of_init_digital_keypad:
  6477                           
  6478                           	psect	text18
  6479     1FE8                     __ptext18:	
  6480 ;; *************** function _init_clcd *****************
  6481 ;; Defined at:
  6482 ;;		line 48 in file "clcd.c"
  6483 ;; Parameters:    Size  Location     Type
  6484 ;;		None
  6485 ;; Auto vars:     Size  Location     Type
  6486 ;;		None
  6487 ;; Return value:  Size  Location     Type
  6488 ;;                  1    wreg      void 
  6489 ;; Registers used:
  6490 ;;		wreg, status,2, status,0, pclath, cstack
  6491 ;; Tracked objects:
  6492 ;;		On entry : 0/0
  6493 ;;		On exit  : 0/0
  6494 ;;		Unchanged: 0/0
  6495 ;; Data sizes:     COMMON   BANK0   BANK1   BANK3   BANK2
  6496 ;;      Params:         0       0       0       0       0
  6497 ;;      Locals:         0       0       0       0       0
  6498 ;;      Temps:          0       0       0       0       0
  6499 ;;      Totals:         0       0       0       0       0
  6500 ;;Total ram usage:        0 bytes
  6501 ;; Hardware stack levels used: 1
  6502 ;; Hardware stack levels required when called: 3
  6503 ;; This function calls:
  6504 ;;		_init_display_controller
  6505 ;; This function is called by:
  6506 ;;		_init_config
  6507 ;; This function uses a non-reentrant model
  6508 ;;
  6509                           
  6510     1FE8                     _init_clcd:	
  6511                           ;psect for function _init_clcd
  6512                           
  6513     1FE8                     l4381:	
  6514                           ;incstack = 0
  6515                           ; Regs used in _init_clcd: [wreg+status,2+status,0+pclath+cstack]
  6516                           
  6517                           
  6518                           ;clcd.c: 51: }
  6519     1FE8  1683               	bsf	3,5	;RP0=1, select bank1
  6520     1FE9  1303               	bcf	3,6	;RP1=0, select bank1
  6521     1FEA  0188               	clrf	8	;volatile
  6522     1FEB                     l4383:
  6523                           
  6524                           ;clcd.c: 54: {
  6525     1FEB  1109               	bcf	9,2	;volatile
  6526     1FEC                     l4385:
  6527                           
  6528                           ;clcd.c: 55:     clcd_write(addr, 0);
  6529     1FEC  1089               	bcf	9,1	;volatile
  6530     1FED                     l4387:
  6531                           
  6532                           ;clcd.c: 57: }
  6533     1FED  120A  158A  21EC  160A  158A  	fcall	_init_display_controller
  6534     1FF2                     l164:
  6535     1FF2  0008               	return
  6536     1FF3                     __end_of_init_clcd:
  6537                           
  6538                           	psect	text19
  6539     09EC                     __ptext19:	
  6540 ;; *************** function _init_display_controller *****************
  6541 ;; Defined at:
  6542 ;;		line 23 in file "clcd.c"
  6543 ;; Parameters:    Size  Location     Type
  6544 ;;		None
  6545 ;; Auto vars:     Size  Location     Type
  6546 ;;		None
  6547 ;; Return value:  Size  Location     Type
  6548 ;;                  1    wreg      void 
  6549 ;; Registers used:
  6550 ;;		wreg, status,2, status,0, pclath, cstack
  6551 ;; Tracked objects:
  6552 ;;		On entry : 0/0
  6553 ;;		On exit  : 0/0
  6554 ;;		Unchanged: 0/0
  6555 ;; Data sizes:     COMMON   BANK0   BANK1   BANK3   BANK2
  6556 ;;      Params:         0       0       0       0       0
  6557 ;;      Locals:         0       0       0       0       0
  6558 ;;      Temps:          2       0       0       0       0
  6559 ;;      Totals:         2       0       0       0       0
  6560 ;;Total ram usage:        2 bytes
  6561 ;; Hardware stack levels used: 1
  6562 ;; Hardware stack levels required when called: 2
  6563 ;; This function calls:
  6564 ;;		_clcd_write
  6565 ;; This function is called by:
  6566 ;;		_init_clcd
  6567 ;; This function uses a non-reentrant model
  6568 ;;
  6569                           
  6570     09EC                     _init_display_controller:	
  6571                           ;psect for function _init_display_controller
  6572                           
  6573     09EC                     l4277:	
  6574                           ;incstack = 0
  6575                           ; Regs used in _init_display_controller: [wreg+status,2+status,0+pclath+cstack]
  6576                           
  6577                           
  6578                           ;clcd.c: 26:     clcd_write(0x33, 0);
  6579     09EC  30C3               	movlw	195
  6580     09ED  00F8               	movwf	??_init_display_controller+1
  6581     09EE  30CD               	movlw	205
  6582     09EF  00F7               	movwf	??_init_display_controller
  6583     09F0                     u5227:
  6584     09F0  0BF7               	decfsz	??_init_display_controller,f
  6585     09F1  29F0               	goto	u5227
  6586     09F2  0BF8               	decfsz	??_init_display_controller+1,f
  6587     09F3  29F0               	goto	u5227
  6588     09F4                     l4279:
  6589                           
  6590                           ;clcd.c: 29:     clcd_write(0x02, 0);
  6591     09F4  01F3               	clrf	clcd_write@mode
  6592     09F5  3033               	movlw	51
  6593     09F6  160A  118A  22C6  120A  158A  	fcall	_clcd_write
  6594     09FB                     l4281:
  6595                           
  6596                           ;clcd.c: 30:     _delay((unsigned long)((100)*(20000000/4000000.0)));
  6597     09FB  301B               	movlw	27
  6598     09FC  00F8               	movwf	??_init_display_controller+1
  6599     09FD  309E               	movlw	158
  6600     09FE  00F7               	movwf	??_init_display_controller
  6601     09FF                     u5237:
  6602     09FF  0BF7               	decfsz	??_init_display_controller,f
  6603     0A00  29FF               	goto	u5237
  6604     0A01  0BF8               	decfsz	??_init_display_controller+1,f
  6605     0A02  29FF               	goto	u5237
  6606     0A03  0000               	nop
  6607                           
  6608                           ;clcd.c: 31:     clcd_write(0x28, 0);
  6609     0A04  01F3               	clrf	clcd_write@mode
  6610     0A05  3033               	movlw	51
  6611     0A06  160A  118A  22C6  120A  158A  	fcall	_clcd_write
  6612     0A0B                     l4283:
  6613                           
  6614                           ;clcd.c: 32:     _delay((unsigned long)((100)*(20000000/4000000.0)));
  6615     0A0B  30A6               	movlw	166
  6616     0A0C  00F7               	movwf	??_init_display_controller
  6617     0A0D                     u5247:
  6618     0A0D  0BF7               	decfsz	??_init_display_controller,f
  6619     0A0E  2A0D               	goto	u5247
  6620     0A0F  0000               	nop
  6621     0A10                     l4285:
  6622                           
  6623                           ;clcd.c: 33:     clcd_write(0x01, 0);
  6624     0A10  01F3               	clrf	clcd_write@mode
  6625     0A11  3033               	movlw	51
  6626     0A12  160A  118A  22C6  120A  158A  	fcall	_clcd_write
  6627     0A17                     l4287:
  6628                           
  6629                           ;clcd.c: 34:     _delay((unsigned long)((500)*(20000000/4000000.0)));
  6630     0A17  2A18               	nop2	;2 cycle nop
  6631     0A18  2A19               	nop2	;2 cycle nop
  6632     0A19  0000               	nop
  6633     0A1A                     l4289:
  6634                           
  6635                           ;clcd.c: 36:     _delay((unsigned long)((100)*(20000000/4000000.0)));
  6636     0A1A  01F3               	clrf	clcd_write@mode
  6637     0A1B  3002               	movlw	2
  6638     0A1C  160A  118A  22C6  120A  158A  	fcall	_clcd_write
  6639     0A21                     l4291:
  6640                           
  6641                           ;clcd.c: 37:      clcd_write(0x0F, 0);
  6642     0A21  30A6               	movlw	166
  6643     0A22  00F7               	movwf	??_init_display_controller
  6644     0A23                     u5257:
  6645     0A23  0BF7               	decfsz	??_init_display_controller,f
  6646     0A24  2A23               	goto	u5257
  6647     0A25  0000               	nop
  6648                           
  6649                           ;clcd.c: 38:     _delay((unsigned long)((100)*(20000000/4000000.0)));
  6650     0A26  01F3               	clrf	clcd_write@mode
  6651     0A27  3028               	movlw	40
  6652     0A28  160A  118A  22C6  120A  158A  	fcall	_clcd_write
  6653     0A2D                     l4293:
  6654                           
  6655                           ;clcd.c: 39: }
  6656     0A2D  30A6               	movlw	166
  6657     0A2E  00F7               	movwf	??_init_display_controller
  6658     0A2F                     u5267:
  6659     0A2F  0BF7               	decfsz	??_init_display_controller,f
  6660     0A30  2A2F               	goto	u5267
  6661     0A31  0000               	nop
  6662     0A32                     l4295:
  6663                           
  6664                           ;clcd.c: 40: 
  6665     0A32  01F3               	clrf	clcd_write@mode
  6666     0A33  3001               	movlw	1
  6667     0A34  160A  118A  22C6  120A  158A  	fcall	_clcd_write
  6668                           
  6669                           ;clcd.c: 41: void init_clcd(void)
  6670     0A39  3004               	movlw	4
  6671     0A3A  00F8               	movwf	??_init_display_controller+1
  6672     0A3B  303D               	movlw	61
  6673     0A3C  00F7               	movwf	??_init_display_controller
  6674     0A3D                     u5277:
  6675     0A3D  0BF7               	decfsz	??_init_display_controller,f
  6676     0A3E  2A3D               	goto	u5277
  6677     0A3F  0BF8               	decfsz	??_init_display_controller+1,f
  6678     0A40  2A3D               	goto	u5277
  6679     0A41  2A42               	nop2
  6680     0A42                     l4297:
  6681                           
  6682                           ;clcd.c: 42: {
  6683     0A42  01F3               	clrf	clcd_write@mode
  6684     0A43  300C               	movlw	12
  6685     0A44  160A  118A  22C6  120A  158A  	fcall	_clcd_write
  6686     0A49                     l4299:
  6687                           
  6688                           ;clcd.c: 43: 
  6689     0A49  30A6               	movlw	166
  6690     0A4A  00F7               	movwf	??_init_display_controller
  6691     0A4B                     u5287:
  6692     0A4B  0BF7               	decfsz	??_init_display_controller,f
  6693     0A4C  2A4B               	goto	u5287
  6694     0A4D  0000               	nop
  6695                           
  6696                           ;clcd.c: 44:     TRISD = 0x00;
  6697     0A4E  01F3               	clrf	clcd_write@mode
  6698     0A4F  300F               	movlw	15
  6699     0A50  160A  118A  22C6  120A  158A  	fcall	_clcd_write
  6700     0A55                     l4301:
  6701                           
  6702                           ;clcd.c: 45: 
  6703     0A55  30A6               	movlw	166
  6704     0A56  00F7               	movwf	??_init_display_controller
  6705     0A57                     u5297:
  6706     0A57  0BF7               	decfsz	??_init_display_controller,f
  6707     0A58  2A57               	goto	u5297
  6708     0A59  0000               	nop
  6709     0A5A                     l161:
  6710     0A5A  0008               	return
  6711     0A5B                     __end_of_init_display_controller:
  6712                           
  6713                           	psect	text20
  6714     1FA0                     __ptext20:	
  6715 ;; *************** function _init_adc *****************
  6716 ;; Defined at:
  6717 ;;		line 5 in file "adc.c"
  6718 ;; Parameters:    Size  Location     Type
  6719 ;;		None
  6720 ;; Auto vars:     Size  Location     Type
  6721 ;;		None
  6722 ;; Return value:  Size  Location     Type
  6723 ;;                  1    wreg      void 
  6724 ;; Registers used:
  6725 ;;		None
  6726 ;; Tracked objects:
  6727 ;;		On entry : 0/0
  6728 ;;		On exit  : 0/0
  6729 ;;		Unchanged: 0/0
  6730 ;; Data sizes:     COMMON   BANK0   BANK1   BANK3   BANK2
  6731 ;;      Params:         0       0       0       0       0
  6732 ;;      Locals:         0       0       0       0       0
  6733 ;;      Temps:          0       0       0       0       0
  6734 ;;      Totals:         0       0       0       0       0
  6735 ;;Total ram usage:        0 bytes
  6736 ;; Hardware stack levels used: 1
  6737 ;; Hardware stack levels required when called: 1
  6738 ;; This function calls:
  6739 ;;		Nothing
  6740 ;; This function is called by:
  6741 ;;		_init_config
  6742 ;; This function uses a non-reentrant model
  6743 ;;
  6744                           
  6745     1FA0                     _init_adc:	
  6746                           ;psect for function _init_adc
  6747                           
  6748     1FA0                     l4401:	
  6749                           ;incstack = 0
  6750                           ; Regs used in _init_adc: []
  6751                           
  6752                           
  6753                           ;adc.c: 8:     ADFM = 1;
  6754     1FA0  1683               	bsf	3,5	;RP0=1, select bank1
  6755     1FA1  1303               	bcf	3,6	;RP1=0, select bank1
  6756     1FA2  179F               	bsf	31,7	;volatile
  6757                           
  6758                           ;adc.c: 11:     ADON = 1;
  6759     1FA3  1283               	bcf	3,5	;RP0=0, select bank0
  6760     1FA4  1303               	bcf	3,6	;RP1=0, select bank0
  6761     1FA5  141F               	bsf	31,0	;volatile
  6762     1FA6                     l135:
  6763     1FA6  0008               	return
  6764     1FA7                     __end_of_init_adc:
  6765                           
  6766                           	psect	text21
  6767     0A5B                     __ptext21:	
  6768 ;; *************** function _download_log *****************
  6769 ;; Defined at:
  6770 ;;		line 315 in file "display.c"
  6771 ;; Parameters:    Size  Location     Type
  6772 ;;		None
  6773 ;; Auto vars:     Size  Location     Type
  6774 ;;  i               2   17[BANK0 ] int 
  6775 ;;  rlog           11    1[BANK0 ] unsigned char [11]
  6776 ;;  next            2   15[BANK0 ] int 
  6777 ;;  rpos            2   13[BANK0 ] int 
  6778 ;;  add             1   12[BANK0 ] unsigned char 
  6779 ;; Return value:  Size  Location     Type
  6780 ;;                  1    wreg      void 
  6781 ;; Registers used:
  6782 ;;		wreg, fsr0l, fsr0h, status,2, status,0, btemp+1, pclath, cstack
  6783 ;; Tracked objects:
  6784 ;;		On entry : 0/0
  6785 ;;		On exit  : 0/0
  6786 ;;		Unchanged: 0/0
  6787 ;; Data sizes:     COMMON   BANK0   BANK1   BANK3   BANK2
  6788 ;;      Params:         0       0       0       0       0
  6789 ;;      Locals:         0      18       0       0       0
  6790 ;;      Temps:          0       1       0       0       0
  6791 ;;      Totals:         0      19       0       0       0
  6792 ;;Total ram usage:       19 bytes
  6793 ;; Hardware stack levels used: 1
  6794 ;; Hardware stack levels required when called: 4
  6795 ;; This function calls:
  6796 ;;		___awmod
  6797 ;;		___bmul
  6798 ;;		_ext_eeprom_24C02_read
  6799 ;;		_putchars
  6800 ;;		_putsx
  6801 ;; This function is called by:
  6802 ;;		_main
  6803 ;; This function uses a non-reentrant model
  6804 ;;
  6805                           
  6806     0A5B                     _download_log:	
  6807                           ;psect for function _download_log
  6808                           
  6809     0A5B                     l4755:	
  6810                           ;incstack = 0
  6811                           ; Regs used in _download_log: [wreg-fsr0h+status,2+status,0+btemp+1+pclath+cstack]
  6812                           
  6813                           
  6814                           ;display.c: 317:   putsx("No logs avaiable");
  6815     0A5B  30FF               	movlw	255
  6816     0A5C  1283               	bcf	3,5	;RP0=0, select bank0
  6817     0A5D  1303               	bcf	3,6	;RP1=0, select bank0
  6818     0A5E  00AF               	movwf	download_log@next
  6819     0A5F  30FF               	movlw	255
  6820     0A60  00B0               	movwf	download_log@next+1
  6821     0A61                     l4757:
  6822                           
  6823                           ;display.c: 318:  };display.c: 319:  else
  6824     0A61  01AB               	clrf	download_log@rlog+10
  6825     0A62                     l4759:
  6826     0A62                     l4761:
  6827                           
  6828                           ;display.c: 321: ;display.c: 323:   putchars('\n');
  6829     0A62  0A64               	incf	_access,w
  6830     0A63  1D03               	skipz
  6831     0A64  2A69               	goto	u4311
  6832     0A65  0A65               	incf	_access+1,w
  6833     0A66  1D03               	btfss	3,2
  6834     0A67  2A69               	goto	u4311
  6835     0A68  2A6A               	goto	u4310
  6836     0A69                     u4311:
  6837     0A69  2A74               	goto	l4765
  6838     0A6A                     u4310:
  6839     0A6A                     l4763:
  6840                           
  6841                           ;display.c: 324:   putchars('\n');;display.c: 325:   putchars('\r');
  6842     0A6A  308E               	movlw	low (STR_25| (0+32768))
  6843     0A6B  00F4               	movwf	putsx@s
  6844     0A6C  3088               	movlw	high (STR_25| (0+32768))
  6845     0A6D  00F5               	movwf	putsx@s+1
  6846     0A6E  160A  118A  215D  120A  158A  	fcall	_putsx
  6847                           
  6848                           ;display.c: 326: 
  6849     0A73  2B92               	goto	l391
  6850     0A74                     l4765:
  6851                           
  6852                           ;display.c: 328:   {;display.c: 330:    rpos = (overflow)? (pos + 1) % 10 : 0;
  6853     0A74  305D               	movlw	low (STR_31| (0+32768))
  6854     0A75  00F4               	movwf	putsx@s
  6855     0A76  3089               	movlw	high (STR_31| (0+32768))
  6856     0A77  00F5               	movwf	putsx@s+1
  6857     0A78  160A  118A  215D  120A  158A  	fcall	_putsx
  6858     0A7D                     l4767:
  6859                           
  6860                           ;display.c: 331:    rpos = (rpos + next) % 10;
  6861     0A7D  300A               	movlw	10
  6862     0A7E  160A  158A  27DD  120A  158A  	fcall	_putchars
  6863     0A83                     l4769:
  6864                           
  6865                           ;display.c: 332: 
  6866     0A83  300A               	movlw	10
  6867     0A84  160A  158A  27DD  120A  158A  	fcall	_putchars
  6868     0A89                     l4771:
  6869                           
  6870                           ;display.c: 333:    for ( int i = 0 ; i < 10 ; i++ )
  6871     0A89  300D               	movlw	13
  6872     0A8A  160A  158A  27DD  120A  158A  	fcall	_putchars
  6873                           
  6874                           ;display.c: 335:     add = rpos * 10 + 5 + i ;
  6875     0A8F  2B82               	goto	l4797
  6876     0A90                     l4773:
  6877                           
  6878                           ;display.c: 336:     rlog[i] = ext_eeprom_24C02_read(add );;display.c: 337:    }
  6879     0A90  3001               	movlw	1
  6880     0A91  1283               	bcf	3,5	;RP0=0, select bank0
  6881     0A92  1303               	bcf	3,6	;RP1=0, select bank0
  6882     0A93  07AF               	addwf	download_log@next,f
  6883     0A94  1803               	skipnc
  6884     0A95  0AB0               	incf	download_log@next+1,f
  6885     0A96  3000               	movlw	0
  6886     0A97  07B0               	addwf	download_log@next+1,f
  6887     0A98                     l4775:
  6888                           
  6889                           ;display.c: 338: 
  6890     0A98  085F               	movf	_overflow,w
  6891     0A99  1D03               	btfss	3,2
  6892     0A9A  2A9C               	goto	u4321
  6893     0A9B  2A9D               	goto	u4320
  6894     0A9C                     u4321:
  6895     0A9C  2AA0               	goto	l4779
  6896     0A9D                     u4320:
  6897     0A9D                     l4777:
  6898     0A9D  01AD               	clrf	download_log@rpos
  6899     0A9E  01AE               	clrf	download_log@rpos+1
  6900     0A9F  2AB7               	goto	l387
  6901     0AA0                     l4779:
  6902     0AA0  300A               	movlw	10
  6903     0AA1  00F3               	movwf	___awmod@divisor
  6904     0AA2  3000               	movlw	0
  6905     0AA3  00F4               	movwf	___awmod@divisor+1
  6906     0AA4  0866               	movf	_pos,w
  6907     0AA5  3E01               	addlw	1
  6908     0AA6  00F5               	movwf	___awmod@dividend
  6909     0AA7  0867               	movf	_pos+1,w
  6910     0AA8  1803               	skipnc
  6911     0AA9  3E01               	addlw	1
  6912     0AAA  3E00               	addlw	0
  6913     0AAB  00F6               	movwf	___awmod@dividend+1
  6914     0AAC  120A  158A  2193  120A  158A  	fcall	___awmod
  6915     0AB1  0874               	movf	?___awmod+1,w
  6916     0AB2  1283               	bcf	3,5	;RP0=0, select bank0
  6917     0AB3  1303               	bcf	3,6	;RP1=0, select bank0
  6918     0AB4  00AE               	movwf	download_log@rpos+1
  6919     0AB5  0873               	movf	?___awmod,w
  6920     0AB6  00AD               	movwf	download_log@rpos
  6921     0AB7                     l387:
  6922                           
  6923                           ;display.c: 339:    putchars ( next + '0');
  6924     0AB7  300A               	movlw	10
  6925     0AB8  00F3               	movwf	___awmod@divisor
  6926     0AB9  3000               	movlw	0
  6927     0ABA  00F4               	movwf	___awmod@divisor+1
  6928     0ABB  082F               	movf	download_log@next,w
  6929     0ABC  072D               	addwf	download_log@rpos,w
  6930     0ABD  00F5               	movwf	___awmod@dividend
  6931     0ABE  0830               	movf	download_log@next+1,w
  6932     0ABF  1803               	skipnc
  6933     0AC0  0A30               	incf	download_log@next+1,w
  6934     0AC1  072E               	addwf	download_log@rpos+1,w
  6935     0AC2  00F6               	movwf	___awmod@dividend+1
  6936     0AC3  120A  158A  2193  120A  158A  	fcall	___awmod
  6937     0AC8  0874               	movf	?___awmod+1,w
  6938     0AC9  1283               	bcf	3,5	;RP0=0, select bank0
  6939     0ACA  1303               	bcf	3,6	;RP1=0, select bank0
  6940     0ACB  00AE               	movwf	download_log@rpos+1
  6941     0ACC  0873               	movf	?___awmod,w
  6942     0ACD  00AD               	movwf	download_log@rpos
  6943     0ACE                     l4781:
  6944                           
  6945                           ;display.c: 341:    putchars ( rlog[0] );
  6946     0ACE  01B1               	clrf	download_log@i
  6947     0ACF  01B2               	clrf	download_log@i+1
  6948     0AD0                     l4787:
  6949                           
  6950                           ;display.c: 342:    putchars ( rlog[1] );;display.c: 343:    putchars (':');
  6951     0AD0  300A               	movlw	10
  6952     0AD1  00F3               	movwf	___bmul@multiplicand
  6953     0AD2  1283               	bcf	3,5	;RP0=0, select bank0
  6954     0AD3  1303               	bcf	3,6	;RP1=0, select bank0
  6955     0AD4  082D               	movf	download_log@rpos,w
  6956     0AD5  160A  118A  206D  120A  158A  	fcall	___bmul
  6957     0ADA  1283               	bcf	3,5	;RP0=0, select bank0
  6958     0ADB  1303               	bcf	3,6	;RP1=0, select bank0
  6959     0ADC  0731               	addwf	download_log@i,w
  6960     0ADD  3E05               	addlw	5
  6961     0ADE  00AC               	movwf	download_log@add
  6962     0ADF                     l4789:
  6963                           
  6964                           ;display.c: 344:    putchars ( rlog[2] );
  6965     0ADF  0831               	movf	download_log@i,w
  6966     0AE0  3E21               	addlw	(low (download_log@rlog| 0))& (0+255)
  6967     0AE1  0084               	movwf	4
  6968     0AE2  082C               	movf	download_log@add,w
  6969     0AE3  160A  118A  21D8  120A  158A  	fcall	_ext_eeprom_24C02_read
  6970     0AE8  1383               	bcf	3,7	;select IRP bank0
  6971     0AE9  0080               	movwf	0
  6972     0AEA                     l4791:
  6973                           
  6974                           ;display.c: 345:    putchars ( rlog[3] );
  6975     0AEA  3001               	movlw	1
  6976     0AEB  1283               	bcf	3,5	;RP0=0, select bank0
  6977     0AEC  1303               	bcf	3,6	;RP1=0, select bank0
  6978     0AED  07B1               	addwf	download_log@i,f
  6979     0AEE  1803               	skipnc
  6980     0AEF  0AB2               	incf	download_log@i+1,f
  6981     0AF0  3000               	movlw	0
  6982     0AF1  07B2               	addwf	download_log@i+1,f
  6983     0AF2                     l4793:
  6984     0AF2  0832               	movf	download_log@i+1,w
  6985     0AF3  3A80               	xorlw	128
  6986     0AF4  00FF               	movwf	btemp+1
  6987     0AF5  3080               	movlw	128
  6988     0AF6  027F               	subwf	btemp+1,w
  6989     0AF7  1D03               	skipz
  6990     0AF8  2AFB               	goto	u4335
  6991     0AF9  300A               	movlw	10
  6992     0AFA  0231               	subwf	download_log@i,w
  6993     0AFB                     u4335:
  6994     0AFB  1C03               	skipc
  6995     0AFC  2AFE               	goto	u4331
  6996     0AFD  2AFF               	goto	u4330
  6997     0AFE                     u4331:
  6998     0AFE  2AD0               	goto	l4787
  6999     0AFF                     u4330:
  7000     0AFF                     l4795:
  7001                           
  7002                           ;display.c: 347:    putchars ( rlog[4] );
  7003     0AFF  1283               	bcf	3,5	;RP0=0, select bank0
  7004     0B00  1303               	bcf	3,6	;RP1=0, select bank0
  7005     0B01  082F               	movf	download_log@next,w
  7006     0B02  3E30               	addlw	48
  7007     0B03  160A  158A  27DD  120A  158A  	fcall	_putchars
  7008                           
  7009                           ;display.c: 348:    putchars ( rlog[5] );
  7010     0B08  3020               	movlw	32
  7011     0B09  160A  158A  27DD  120A  158A  	fcall	_putchars
  7012                           
  7013                           ;display.c: 349:    putchars (' ');
  7014     0B0E  1283               	bcf	3,5	;RP0=0, select bank0
  7015     0B0F  1303               	bcf	3,6	;RP1=0, select bank0
  7016     0B10  0821               	movf	download_log@rlog,w
  7017     0B11  160A  158A  27DD  120A  158A  	fcall	_putchars
  7018                           
  7019                           ;display.c: 350:    putchars ( rlog[6] );
  7020     0B16  1283               	bcf	3,5	;RP0=0, select bank0
  7021     0B17  1303               	bcf	3,6	;RP1=0, select bank0
  7022     0B18  0822               	movf	download_log@rlog+1,w
  7023     0B19  160A  158A  27DD  120A  158A  	fcall	_putchars
  7024                           
  7025                           ;display.c: 351:    putchars ( rlog[7] );
  7026     0B1E  303A               	movlw	58
  7027     0B1F  160A  158A  27DD  120A  158A  	fcall	_putchars
  7028                           
  7029                           ;display.c: 352:    putchars (' ');
  7030     0B24  1283               	bcf	3,5	;RP0=0, select bank0
  7031     0B25  1303               	bcf	3,6	;RP1=0, select bank0
  7032     0B26  0823               	movf	download_log@rlog+2,w
  7033     0B27  160A  158A  27DD  120A  158A  	fcall	_putchars
  7034                           
  7035                           ;display.c: 353:    putchars ( rlog[8] );
  7036     0B2C  1283               	bcf	3,5	;RP0=0, select bank0
  7037     0B2D  1303               	bcf	3,6	;RP1=0, select bank0
  7038     0B2E  0824               	movf	download_log@rlog+3,w
  7039     0B2F  160A  158A  27DD  120A  158A  	fcall	_putchars
  7040                           
  7041                           ;display.c: 354:    putchars ( rlog[9] );
  7042     0B34  303A               	movlw	58
  7043     0B35  160A  158A  27DD  120A  158A  	fcall	_putchars
  7044                           
  7045                           ;display.c: 355:    putchars ( '\n' );
  7046     0B3A  1283               	bcf	3,5	;RP0=0, select bank0
  7047     0B3B  1303               	bcf	3,6	;RP1=0, select bank0
  7048     0B3C  0825               	movf	download_log@rlog+4,w
  7049     0B3D  160A  158A  27DD  120A  158A  	fcall	_putchars
  7050                           
  7051                           ;display.c: 356:    putchars ('\r');
  7052     0B42  1283               	bcf	3,5	;RP0=0, select bank0
  7053     0B43  1303               	bcf	3,6	;RP1=0, select bank0
  7054     0B44  0826               	movf	download_log@rlog+5,w
  7055     0B45  160A  158A  27DD  120A  158A  	fcall	_putchars
  7056                           
  7057                           ;display.c: 357:   }
  7058     0B4A  3020               	movlw	32
  7059     0B4B  160A  158A  27DD  120A  158A  	fcall	_putchars
  7060                           
  7061                           ;display.c: 358:  }
  7062     0B50  1283               	bcf	3,5	;RP0=0, select bank0
  7063     0B51  1303               	bcf	3,6	;RP1=0, select bank0
  7064     0B52  0827               	movf	download_log@rlog+6,w
  7065     0B53  160A  158A  27DD  120A  158A  	fcall	_putchars
  7066                           
  7067                           ;display.c: 359: }
  7068     0B58  1283               	bcf	3,5	;RP0=0, select bank0
  7069     0B59  1303               	bcf	3,6	;RP1=0, select bank0
  7070     0B5A  0828               	movf	download_log@rlog+7,w
  7071     0B5B  160A  158A  27DD  120A  158A  	fcall	_putchars
  7072                           
  7073                           ;display.c: 360: 
  7074     0B60  3020               	movlw	32
  7075     0B61  160A  158A  27DD  120A  158A  	fcall	_putchars
  7076                           
  7077                           ;display.c: 361: char change_time( unsigned char key ,unsigned char reset_time )
  7078     0B66  1283               	bcf	3,5	;RP0=0, select bank0
  7079     0B67  1303               	bcf	3,6	;RP1=0, select bank0
  7080     0B68  0829               	movf	download_log@rlog+8,w
  7081     0B69  160A  158A  27DD  120A  158A  	fcall	_putchars
  7082                           
  7083                           ;display.c: 362: {
  7084     0B6E  1283               	bcf	3,5	;RP0=0, select bank0
  7085     0B6F  1303               	bcf	3,6	;RP1=0, select bank0
  7086     0B70  082A               	movf	download_log@rlog+9,w
  7087     0B71  160A  158A  27DD  120A  158A  	fcall	_putchars
  7088                           
  7089                           ;display.c: 363: 
  7090     0B76  300A               	movlw	10
  7091     0B77  160A  158A  27DD  120A  158A  	fcall	_putchars
  7092                           
  7093                           ;display.c: 364:  static unsigned int new_time[3];
  7094     0B7C  300D               	movlw	13
  7095     0B7D  160A  158A  27DD  120A  158A  	fcall	_putchars
  7096     0B82                     l4797:
  7097                           
  7098                           ;display.c: 335:     add = rpos * 10 + 5 + i ;
  7099     0B82  1283               	bcf	3,5	;RP0=0, select bank0
  7100     0B83  1303               	bcf	3,6	;RP1=0, select bank0
  7101     0B84  0830               	movf	download_log@next+1,w
  7102     0B85  3A80               	xorlw	128
  7103     0B86  00A0               	movwf	??_download_log
  7104     0B87  0865               	movf	_access+1,w
  7105     0B88  3A80               	xorlw	128
  7106     0B89  0220               	subwf	??_download_log,w
  7107     0B8A  1D03               	skipz
  7108     0B8B  2B8E               	goto	u4345
  7109     0B8C  0864               	movf	_access,w
  7110     0B8D  022F               	subwf	download_log@next,w
  7111     0B8E                     u4345:
  7112     0B8E  1C03               	skipc
  7113     0B8F  2B91               	goto	u4341
  7114     0B90  2B92               	goto	u4340
  7115     0B91                     u4341:
  7116     0B91  2A90               	goto	l4773
  7117     0B92                     u4340:
  7118     0B92                     l391:
  7119     0B92  0008               	return
  7120     0B93                     __end_of_download_log:
  7121                           
  7122                           	psect	text22
  7123     115D                     __ptext22:	
  7124 ;; *************** function _putsx *****************
  7125 ;; Defined at:
  7126 ;;		line 39 in file "uart.c"
  7127 ;; Parameters:    Size  Location     Type
  7128 ;;  s               2    4[COMMON] PTR const unsigned char 
  7129 ;;		 -> STR_31(7), STR_30(17), 
  7130 ;; Auto vars:     Size  Location     Type
  7131 ;;		None
  7132 ;; Return value:  Size  Location     Type
  7133 ;;                  1    wreg      void 
  7134 ;; Registers used:
  7135 ;;		wreg, fsr0l, fsr0h, status,2, status,0, btemp+1, pclath, cstack
  7136 ;; Tracked objects:
  7137 ;;		On entry : 0/0
  7138 ;;		On exit  : 0/0
  7139 ;;		Unchanged: 0/0
  7140 ;; Data sizes:     COMMON   BANK0   BANK1   BANK3   BANK2
  7141 ;;      Params:         2       0       0       0       0
  7142 ;;      Locals:         0       0       0       0       0
  7143 ;;      Temps:          0       0       0       0       0
  7144 ;;      Totals:         2       0       0       0       0
  7145 ;;Total ram usage:        2 bytes
  7146 ;; Hardware stack levels used: 1
  7147 ;; Hardware stack levels required when called: 2
  7148 ;; This function calls:
  7149 ;;		_putchars
  7150 ;; This function is called by:
  7151 ;;		_download_log
  7152 ;; This function uses a non-reentrant model
  7153 ;;
  7154                           
  7155     115D                     _putsx:	
  7156                           ;psect for function _putsx
  7157                           
  7158     115D                     l4483:	
  7159                           ;incstack = 0
  7160                           ; Regs used in _putsx: [wreg-fsr0h+status,2+status,0+btemp+1+pclath+cstack]
  7161                           
  7162                           
  7163                           ;uart.c: 39: void putsx(const char *s);uart.c: 40: {;uart.c: 41:     while (*s)
  7164     115D  2972               	goto	l4489
  7165     115E                     l4485:
  7166                           
  7167                           ;uart.c: 42:     {;uart.c: 43:         putchars(*s++);
  7168     115E  0875               	movf	putsx@s+1,w
  7169     115F  00FF               	movwf	btemp+1
  7170     1160  0874               	movf	putsx@s,w
  7171     1161  0084               	movwf	4
  7172     1162  160A  118A  2000  160A  118A  	fcall	stringtab
  7173     1167  160A  158A  27DD  160A  118A  	fcall	_putchars
  7174     116C                     l4487:
  7175     116C  3001               	movlw	1
  7176     116D  07F4               	addwf	putsx@s,f
  7177     116E  1803               	skipnc
  7178     116F  0AF5               	incf	putsx@s+1,f
  7179     1170  3000               	movlw	0
  7180     1171  07F5               	addwf	putsx@s+1,f
  7181     1172                     l4489:
  7182                           
  7183                           ;uart.c: 41:     while (*s)
  7184     1172  0875               	movf	putsx@s+1,w
  7185     1173  1283               	bcf	3,5	;RP0=0, select bank0
  7186     1174  1303               	bcf	3,6	;RP1=0, select bank0
  7187     1175  00FF               	movwf	btemp+1
  7188     1176  0874               	movf	putsx@s,w
  7189     1177  0084               	movwf	4
  7190     1178  160A  118A  2000  160A  118A  	fcall	stringtab
  7191     117D  3A00               	xorlw	0
  7192     117E  1D03               	skipz
  7193     117F  2981               	goto	u3741
  7194     1180  2982               	goto	u3740
  7195     1181                     u3741:
  7196     1181  295E               	goto	l4485
  7197     1182                     u3740:
  7198     1182                     l558:
  7199     1182  0008               	return
  7200     1183                     __end_of_putsx:
  7201                           
  7202                           	psect	text23
  7203     1FDD                     __ptext23:	
  7204 ;; *************** function _putchars *****************
  7205 ;; Defined at:
  7206 ;;		line 24 in file "uart.c"
  7207 ;; Parameters:    Size  Location     Type
  7208 ;;  data            1    wreg     unsigned char 
  7209 ;; Auto vars:     Size  Location     Type
  7210 ;;  data            1    3[COMMON] unsigned char 
  7211 ;; Return value:  Size  Location     Type
  7212 ;;                  1    wreg      void 
  7213 ;; Registers used:
  7214 ;;		wreg
  7215 ;; Tracked objects:
  7216 ;;		On entry : 0/0
  7217 ;;		On exit  : 0/0
  7218 ;;		Unchanged: 0/0
  7219 ;; Data sizes:     COMMON   BANK0   BANK1   BANK3   BANK2
  7220 ;;      Params:         0       0       0       0       0
  7221 ;;      Locals:         1       0       0       0       0
  7222 ;;      Temps:          0       0       0       0       0
  7223 ;;      Totals:         1       0       0       0       0
  7224 ;;Total ram usage:        1 bytes
  7225 ;; Hardware stack levels used: 1
  7226 ;; Hardware stack levels required when called: 1
  7227 ;; This function calls:
  7228 ;;		Nothing
  7229 ;; This function is called by:
  7230 ;;		_download_log
  7231 ;;		_putsx
  7232 ;; This function uses a non-reentrant model
  7233 ;;
  7234                           
  7235     1FDD                     _putchars:	
  7236                           ;psect for function _putchars
  7237                           
  7238                           
  7239                           ;incstack = 0
  7240                           ; Regs used in _putchars: [wreg]
  7241                           ;putchars@data stored from wreg
  7242     1FDD  00F3               	movwf	putchars@data
  7243     1FDE                     l4337:
  7244                           
  7245                           ;uart.c: 24: void putchars(unsigned char data);uart.c: 25: {;uart.c: 27:     TXREG = dat
      +                          a;
  7246     1FDE  0873               	movf	putchars@data,w
  7247     1FDF  1283               	bcf	3,5	;RP0=0, select bank0
  7248     1FE0  1303               	bcf	3,6	;RP1=0, select bank0
  7249     1FE1  0099               	movwf	25	;volatile
  7250     1FE2                     l550:	
  7251                           ;uart.c: 33:     } while (TXIF != 1);
  7252                           
  7253     1FE2  1E0C               	btfss	12,4	;volatile
  7254     1FE3  2FE5               	goto	u3531
  7255     1FE4  2FE6               	goto	u3530
  7256     1FE5                     u3531:
  7257     1FE5  2FE2               	goto	l550
  7258     1FE6                     u3530:
  7259     1FE6                     l551:
  7260                           
  7261                           ;uart.c: 36:     TXIF = 0;
  7262     1FE6  120C               	bcf	12,4	;volatile
  7263     1FE7                     l552:
  7264     1FE7  0008               	return
  7265     1FE8                     __end_of_putchars:
  7266                           
  7267                           	psect	text24
  7268     11D8                     __ptext24:	
  7269 ;; *************** function _ext_eeprom_24C02_read *****************
  7270 ;; Defined at:
  7271 ;;		line 8 in file "EEprom.c"
  7272 ;; Parameters:    Size  Location     Type
  7273 ;;  addr            1    wreg     unsigned char 
  7274 ;; Auto vars:     Size  Location     Type
  7275 ;;  addr            1    5[COMMON] unsigned char 
  7276 ;;  data            1    6[COMMON] unsigned char 
  7277 ;; Return value:  Size  Location     Type
  7278 ;;                  1    wreg      unsigned char 
  7279 ;; Registers used:
  7280 ;;		wreg, status,2, status,0, pclath, cstack
  7281 ;; Tracked objects:
  7282 ;;		On entry : 0/0
  7283 ;;		On exit  : 0/0
  7284 ;;		Unchanged: 0/0
  7285 ;; Data sizes:     COMMON   BANK0   BANK1   BANK3   BANK2
  7286 ;;      Params:         0       0       0       0       0
  7287 ;;      Locals:         2       0       0       0       0
  7288 ;;      Temps:          0       0       0       0       0
  7289 ;;      Totals:         2       0       0       0       0
  7290 ;;Total ram usage:        2 bytes
  7291 ;; Hardware stack levels used: 1
  7292 ;; Hardware stack levels required when called: 3
  7293 ;; This function calls:
  7294 ;;		_i2c_read
  7295 ;;		_i2c_rep_start
  7296 ;;		_i2c_start
  7297 ;;		_i2c_stop
  7298 ;;		_i2c_write
  7299 ;; This function is called by:
  7300 ;;		_get_password
  7301 ;;		_view_log
  7302 ;;		_download_log
  7303 ;; This function uses a non-reentrant model
  7304 ;;
  7305                           
  7306     11D8                     _ext_eeprom_24C02_read:	
  7307                           ;psect for function _ext_eeprom_24C02_read
  7308                           
  7309                           
  7310                           ;incstack = 0
  7311                           ; Regs used in _ext_eeprom_24C02_read: [wreg+status,2+status,0+pclath+cstack]
  7312                           ;ext_eeprom_24C02_read@addr stored from wreg
  7313     11D8  00F5               	movwf	ext_eeprom_24C02_read@addr
  7314     11D9                     l4331:
  7315                           
  7316                           ;EEprom.c: 8: ;EEprom.c: 9:     i2c_write(0xA0);;EEprom.c: 11:     i2c_write(addr);;EEpr
      +                          om.c: 14: 
  7317     11D9  160A  158A  27B7  160A  118A  	fcall	_i2c_start
  7318                           
  7319                           ;EEprom.c: 17: 
  7320     11DE  30A0               	movlw	160
  7321     11DF  160A  158A  27D2  160A  118A  	fcall	_i2c_write
  7322                           
  7323                           ;EEprom.c: 19: 
  7324     11E4  0875               	movf	ext_eeprom_24C02_read@addr,w
  7325     11E5  160A  158A  27D2  160A  118A  	fcall	_i2c_write
  7326                           
  7327                           ;EEprom.c: 21:     i2c_stop();
  7328     11EA  160A  158A  27C9  160A  118A  	fcall	_i2c_rep_start
  7329                           
  7330                           ;EEprom.c: 23:     return data;
  7331     11EF  30A1               	movlw	161
  7332     11F0  160A  158A  27D2  160A  118A  	fcall	_i2c_write
  7333                           
  7334                           ;EEprom.c: 26: 
  7335     11F5  3000               	movlw	0
  7336     11F6  160A  118A  20F4  160A  118A  	fcall	_i2c_read
  7337     11FB  00F6               	movwf	ext_eeprom_24C02_read@data
  7338                           
  7339                           ;EEprom.c: 29: 
  7340     11FC  160A  158A  27C0  160A  118A  	fcall	_i2c_stop
  7341     1201                     l4333:
  7342                           
  7343                           ;EEprom.c: 31: 
  7344     1201  0876               	movf	ext_eeprom_24C02_read@data,w
  7345     1202                     l460:
  7346     1202  0008               	return
  7347     1203                     __end_of_ext_eeprom_24C02_read:
  7348                           
  7349                           	psect	text25
  7350     106D                     __ptext25:	
  7351 ;; *************** function ___bmul *****************
  7352 ;; Defined at:
  7353 ;;		line 4 in file "C:\Program Files\Microchip\xc8\v2.45\pic\sources\c99\common\Umul8.c"
  7354 ;; Parameters:    Size  Location     Type
  7355 ;;  multiplier      1    wreg     unsigned char 
  7356 ;;  multiplicand    1    3[COMMON] unsigned char 
  7357 ;; Auto vars:     Size  Location     Type
  7358 ;;  multiplier      1    5[COMMON] unsigned char 
  7359 ;;  product         1    4[COMMON] unsigned char 
  7360 ;; Return value:  Size  Location     Type
  7361 ;;                  1    wreg      unsigned char 
  7362 ;; Registers used:
  7363 ;;		wreg, status,2, status,0, btemp+1
  7364 ;; Tracked objects:
  7365 ;;		On entry : 0/0
  7366 ;;		On exit  : 0/0
  7367 ;;		Unchanged: 0/0
  7368 ;; Data sizes:     COMMON   BANK0   BANK1   BANK3   BANK2
  7369 ;;      Params:         1       0       0       0       0
  7370 ;;      Locals:         2       0       0       0       0
  7371 ;;      Temps:          0       0       0       0       0
  7372 ;;      Totals:         3       0       0       0       0
  7373 ;;Total ram usage:        3 bytes
  7374 ;; Hardware stack levels used: 1
  7375 ;; Hardware stack levels required when called: 1
  7376 ;; This function calls:
  7377 ;;		Nothing
  7378 ;; This function is called by:
  7379 ;;		_log_event
  7380 ;;		_view_log
  7381 ;;		_download_log
  7382 ;; This function uses a non-reentrant model
  7383 ;;
  7384                           
  7385     106D                     ___bmul:	
  7386                           ;psect for function ___bmul
  7387                           
  7388                           
  7389                           ;incstack = 0
  7390                           ; Regs used in ___bmul: [wreg+status,2+status,0+btemp+1]
  7391                           ;___bmul@multiplier stored from wreg
  7392     106D  00F5               	movwf	___bmul@multiplier
  7393     106E                     l4339:
  7394     106E  01F4               	clrf	___bmul@product
  7395     106F                     l4341:
  7396     106F  1C75               	btfss	___bmul@multiplier,0
  7397     1070  2872               	goto	u3541
  7398     1071  2873               	goto	u3540
  7399     1072                     u3541:
  7400     1072  2877               	goto	l4345
  7401     1073                     u3540:
  7402     1073                     l4343:
  7403     1073  0873               	movf	___bmul@multiplicand,w
  7404     1074  00FF               	movwf	btemp+1
  7405     1075  087F               	movf	btemp+1,w
  7406     1076  07F4               	addwf	___bmul@product,f
  7407     1077                     l4345:
  7408     1077  1003               	clrc
  7409     1078  0DF3               	rlf	___bmul@multiplicand,f
  7410     1079                     l4347:
  7411     1079  1003               	clrc
  7412     107A  0CF5               	rrf	___bmul@multiplier,f
  7413     107B                     l4349:
  7414     107B  0875               	movf	___bmul@multiplier,w
  7415     107C  1D03               	btfss	3,2
  7416     107D  287F               	goto	u3551
  7417     107E  2880               	goto	u3550
  7418     107F                     u3551:
  7419     107F  286F               	goto	l4341
  7420     1080                     u3550:
  7421     1080                     l4351:
  7422     1080  0874               	movf	___bmul@product,w
  7423     1081                     l670:
  7424     1081  0008               	return
  7425     1082                     __end_of___bmul:
  7426                           
  7427                           	psect	text26
  7428     14CA                     __ptext26:	
  7429 ;; *************** function _display_dash_board *****************
  7430 ;; Defined at:
  7431 ;;		line 53 in file "display.c"
  7432 ;; Parameters:    Size  Location     Type
  7433 ;;  event           1    wreg     PTR unsigned char 
  7434 ;;		 -> main@event(3), 
  7435 ;;  speed           1    9[BANK0 ] unsigned char 
  7436 ;; Auto vars:     Size  Location     Type
  7437 ;;  event           1   12[BANK0 ] PTR unsigned char 
  7438 ;;		 -> main@event(3), 
  7439 ;; Return value:  Size  Location     Type
  7440 ;;                  1    wreg      void 
  7441 ;; Registers used:
  7442 ;;		wreg, fsr0l, fsr0h, status,2, status,0, btemp+1, pclath, cstack
  7443 ;; Tracked objects:
  7444 ;;		On entry : 0/0
  7445 ;;		On exit  : 0/0
  7446 ;;		Unchanged: 0/0
  7447 ;; Data sizes:     COMMON   BANK0   BANK1   BANK3   BANK2
  7448 ;;      Params:         0       1       0       0       0
  7449 ;;      Locals:         0       1       0       0       0
  7450 ;;      Temps:          0       2       0       0       0
  7451 ;;      Totals:         0       4       0       0       0
  7452 ;;Total ram usage:        4 bytes
  7453 ;; Hardware stack levels used: 1
  7454 ;; Hardware stack levels required when called: 6
  7455 ;; This function calls:
  7456 ;;		___awdiv
  7457 ;;		___awmod
  7458 ;;		_clcd_print
  7459 ;;		_clcd_putch
  7460 ;;		_display_time
  7461 ;; This function is called by:
  7462 ;;		_main
  7463 ;; This function uses a non-reentrant model
  7464 ;;
  7465                           
  7466     14CA                     _display_dash_board:	
  7467                           ;psect for function _display_dash_board
  7468                           
  7469                           
  7470                           ;incstack = 0
  7471                           ; Regs used in _display_dash_board: [wreg-fsr0h+status,2+status,0+btemp+1+pclath+cstack]
  7472                           ;display_dash_board@event stored from wreg
  7473     14CA  1283               	bcf	3,5	;RP0=0, select bank0
  7474     14CB  1303               	bcf	3,6	;RP1=0, select bank0
  7475     14CC  00AC               	movwf	display_dash_board@event
  7476     14CD                     l4799:
  7477                           
  7478                           ;display.c: 53: ;display.c: 54: ;display.c: 55:     display_time();
  7479     14CD  304A               	movlw	low (STR_19| (0+32768))
  7480     14CE  00A0               	movwf	clcd_print@str
  7481     14CF  3088               	movlw	high (STR_19| (0+32768))
  7482     14D0  00A1               	movwf	clcd_print@str+1
  7483     14D1  3080               	movlw	128
  7484     14D2  00A2               	movwf	clcd_print@addr
  7485     14D3  160A  118A  225F  160A  118A  	fcall	_clcd_print
  7486                           
  7487                           ;display.c: 57: 
  7488     14D8  1283               	bcf	3,5	;RP0=0, select bank0
  7489     14D9  1303               	bcf	3,6	;RP1=0, select bank0
  7490     14DA  082C               	movf	display_dash_board@event,w
  7491     14DB  00A0               	movwf	clcd_print@str
  7492     14DC  3000               	movlw	0
  7493     14DD  00A1               	movwf	clcd_print@str+1
  7494     14DE  30CB               	movlw	203
  7495     14DF  00A2               	movwf	clcd_print@addr
  7496     14E0  160A  118A  225F  160A  118A  	fcall	_clcd_print
  7497     14E5                     l4801:
  7498                           
  7499                           ;display.c: 59: {
  7500     14E5  30CE               	movlw	206
  7501     14E6  1283               	bcf	3,5	;RP0=0, select bank0
  7502     14E7  1303               	bcf	3,6	;RP1=0, select bank0
  7503     14E8  00A7               	movwf	clcd_putch@addr
  7504     14E9  300A               	movlw	10
  7505     14EA  00F3               	movwf	___awdiv@divisor
  7506     14EB  3000               	movlw	0
  7507     14EC  00F4               	movwf	___awdiv@divisor+1
  7508     14ED  0829               	movf	display_dash_board@speed,w
  7509     14EE  00AA               	movwf	??_display_dash_board
  7510     14EF  01AB               	clrf	??_display_dash_board+1
  7511     14F0  082A               	movf	??_display_dash_board,w
  7512     14F1  00F5               	movwf	___awdiv@dividend
  7513     14F2  082B               	movf	??_display_dash_board+1,w
  7514     14F3  00F6               	movwf	___awdiv@dividend+1
  7515     14F4  160A  118A  26A6  160A  118A  	fcall	___awdiv
  7516     14F9  0873               	movf	?___awdiv,w
  7517     14FA  3E30               	addlw	48
  7518     14FB  160A  118A  2058  160A  118A  	fcall	_clcd_putch
  7519     1500                     l4803:
  7520                           
  7521                           ;display.c: 60: 
  7522     1500  30CF               	movlw	207
  7523     1501  1283               	bcf	3,5	;RP0=0, select bank0
  7524     1502  1303               	bcf	3,6	;RP1=0, select bank0
  7525     1503  00A7               	movwf	clcd_putch@addr
  7526     1504  300A               	movlw	10
  7527     1505  00F3               	movwf	___awmod@divisor
  7528     1506  3000               	movlw	0
  7529     1507  00F4               	movwf	___awmod@divisor+1
  7530     1508  0829               	movf	display_dash_board@speed,w
  7531     1509  00AA               	movwf	??_display_dash_board
  7532     150A  01AB               	clrf	??_display_dash_board+1
  7533     150B  082A               	movf	??_display_dash_board,w
  7534     150C  00F5               	movwf	___awmod@dividend
  7535     150D  082B               	movf	??_display_dash_board+1,w
  7536     150E  00F6               	movwf	___awmod@dividend+1
  7537     150F  120A  158A  2193  160A  118A  	fcall	___awmod
  7538     1514  0873               	movf	?___awmod,w
  7539     1515  3E30               	addlw	48
  7540     1516  160A  118A  2058  160A  118A  	fcall	_clcd_putch
  7541     151B                     l4805:
  7542                           
  7543                           ;display.c: 63:  if( ++pos == 10 )
  7544     151B  160A  118A  2579  160A  118A  	fcall	_display_time
  7545     1520                     l301:
  7546     1520  0008               	return
  7547     1521                     __end_of_display_dash_board:
  7548                           
  7549                           	psect	text27
  7550     1579                     __ptext27:	
  7551 ;; *************** function _display_time *****************
  7552 ;; Defined at:
  7553 ;;		line 36 in file "display.c"
  7554 ;; Parameters:    Size  Location     Type
  7555 ;;		None
  7556 ;; Auto vars:     Size  Location     Type
  7557 ;;		None
  7558 ;; Return value:  Size  Location     Type
  7559 ;;                  1    wreg      void 
  7560 ;; Registers used:
  7561 ;;		wreg, status,2, status,0, pclath, cstack
  7562 ;; Tracked objects:
  7563 ;;		On entry : 0/0
  7564 ;;		On exit  : 0/0
  7565 ;;		Unchanged: 0/0
  7566 ;; Data sizes:     COMMON   BANK0   BANK1   BANK3   BANK2
  7567 ;;      Params:         0       0       0       0       0
  7568 ;;      Locals:         0       0       0       0       0
  7569 ;;      Temps:          0       0       0       0       0
  7570 ;;      Totals:         0       0       0       0       0
  7571 ;;Total ram usage:        0 bytes
  7572 ;; Hardware stack levels used: 1
  7573 ;; Hardware stack levels required when called: 5
  7574 ;; This function calls:
  7575 ;;		_clcd_putch
  7576 ;;		_get_time
  7577 ;; This function is called by:
  7578 ;;		_display_dash_board
  7579 ;; This function uses a non-reentrant model
  7580 ;;
  7581                           
  7582     1579                     _display_time:	
  7583                           ;psect for function _display_time
  7584                           
  7585     1579                     l4425:	
  7586                           ;incstack = 0
  7587                           ; Regs used in _display_time: [wreg+status,2+status,0+pclath+cstack]
  7588                           
  7589                           
  7590                           ;display.c: 39: 
  7591     1579  160A  118A  25DB  160A  118A  	fcall	_get_time
  7592                           
  7593                           ;display.c: 41:     clcd_putch(time[4],(0xC0 + 8));
  7594     157E  30C2               	movlw	194
  7595     157F  1283               	bcf	3,5	;RP0=0, select bank0
  7596     1580  1303               	bcf	3,6	;RP1=0, select bank0
  7597     1581  00A7               	movwf	clcd_putch@addr
  7598     1582  1683               	bsf	3,5	;RP0=1, select bank1
  7599     1583  1303               	bcf	3,6	;RP1=0, select bank1
  7600     1584  0838               	movf	_time^(0+128),w
  7601     1585  160A  118A  2058  160A  118A  	fcall	_clcd_putch
  7602                           
  7603                           ;display.c: 42:     clcd_putch(time[5],(0xC0 + 9));
  7604     158A  30C3               	movlw	195
  7605     158B  1283               	bcf	3,5	;RP0=0, select bank0
  7606     158C  1303               	bcf	3,6	;RP1=0, select bank0
  7607     158D  00A7               	movwf	clcd_putch@addr
  7608     158E  1683               	bsf	3,5	;RP0=1, select bank1
  7609     158F  1303               	bcf	3,6	;RP1=0, select bank1
  7610     1590  0839               	movf	(_time^(0+128)+1),w
  7611     1591  160A  118A  2058  160A  118A  	fcall	_clcd_putch
  7612                           
  7613                           ;display.c: 44: }
  7614     1596  30C4               	movlw	196
  7615     1597  1283               	bcf	3,5	;RP0=0, select bank0
  7616     1598  1303               	bcf	3,6	;RP1=0, select bank0
  7617     1599  00A7               	movwf	clcd_putch@addr
  7618     159A  303A               	movlw	58
  7619     159B  160A  118A  2058  160A  118A  	fcall	_clcd_putch
  7620                           
  7621                           ;display.c: 45: void display_dash_board( char event[] , unsigned char speed)
  7622     15A0  30C5               	movlw	197
  7623     15A1  1283               	bcf	3,5	;RP0=0, select bank0
  7624     15A2  1303               	bcf	3,6	;RP1=0, select bank0
  7625     15A3  00A7               	movwf	clcd_putch@addr
  7626     15A4  1683               	bsf	3,5	;RP0=1, select bank1
  7627     15A5  1303               	bcf	3,6	;RP1=0, select bank1
  7628     15A6  083A               	movf	(_time^(0+128)+2),w
  7629     15A7  160A  118A  2058  160A  118A  	fcall	_clcd_putch
  7630                           
  7631                           ;display.c: 46: {
  7632     15AC  30C6               	movlw	198
  7633     15AD  1283               	bcf	3,5	;RP0=0, select bank0
  7634     15AE  1303               	bcf	3,6	;RP1=0, select bank0
  7635     15AF  00A7               	movwf	clcd_putch@addr
  7636     15B0  1683               	bsf	3,5	;RP0=1, select bank1
  7637     15B1  1303               	bcf	3,6	;RP1=0, select bank1
  7638     15B2  083B               	movf	(_time^(0+128)+3),w
  7639     15B3  160A  118A  2058  160A  118A  	fcall	_clcd_putch
  7640                           
  7641                           ;display.c: 48: 
  7642     15B8  30C7               	movlw	199
  7643     15B9  1283               	bcf	3,5	;RP0=0, select bank0
  7644     15BA  1303               	bcf	3,6	;RP1=0, select bank0
  7645     15BB  00A7               	movwf	clcd_putch@addr
  7646     15BC  303A               	movlw	58
  7647     15BD  160A  118A  2058  160A  118A  	fcall	_clcd_putch
  7648                           
  7649                           ;display.c: 49:     clcd_print(event,(0xC0 + 11));
  7650     15C2  30C8               	movlw	200
  7651     15C3  1283               	bcf	3,5	;RP0=0, select bank0
  7652     15C4  1303               	bcf	3,6	;RP1=0, select bank0
  7653     15C5  00A7               	movwf	clcd_putch@addr
  7654     15C6  1683               	bsf	3,5	;RP0=1, select bank1
  7655     15C7  1303               	bcf	3,6	;RP1=0, select bank1
  7656     15C8  083C               	movf	(_time^(0+128)+4),w
  7657     15C9  160A  118A  2058  160A  118A  	fcall	_clcd_putch
  7658                           
  7659                           ;display.c: 50: 
  7660     15CE  30C9               	movlw	201
  7661     15CF  1283               	bcf	3,5	;RP0=0, select bank0
  7662     15D0  1303               	bcf	3,6	;RP1=0, select bank0
  7663     15D1  00A7               	movwf	clcd_putch@addr
  7664     15D2  1683               	bsf	3,5	;RP0=1, select bank1
  7665     15D3  1303               	bcf	3,6	;RP1=0, select bank1
  7666     15D4  083D               	movf	(_time^(0+128)+5),w
  7667     15D5  160A  118A  2058  160A  118A  	fcall	_clcd_putch
  7668     15DA                     l298:
  7669     15DA  0008               	return
  7670     15DB                     __end_of_display_time:
  7671                           
  7672                           	psect	text28
  7673     16A6                     __ptext28:	
  7674 ;; *************** function ___awdiv *****************
  7675 ;; Defined at:
  7676 ;;		line 5 in file "C:\Program Files\Microchip\xc8\v2.45\pic\sources\c99\common\awdiv.c"
  7677 ;; Parameters:    Size  Location     Type
  7678 ;;  divisor         2    3[COMMON] int 
  7679 ;;  dividend        2    5[COMMON] int 
  7680 ;; Auto vars:     Size  Location     Type
  7681 ;;  quotient        2    2[BANK0 ] int 
  7682 ;;  sign            1    1[BANK0 ] unsigned char 
  7683 ;;  counter         1    0[BANK0 ] unsigned char 
  7684 ;; Return value:  Size  Location     Type
  7685 ;;                  2    3[COMMON] int 
  7686 ;; Registers used:
  7687 ;;		wreg, status,2, status,0, btemp+1
  7688 ;; Tracked objects:
  7689 ;;		On entry : 0/0
  7690 ;;		On exit  : 0/0
  7691 ;;		Unchanged: 0/0
  7692 ;; Data sizes:     COMMON   BANK0   BANK1   BANK3   BANK2
  7693 ;;      Params:         4       0       0       0       0
  7694 ;;      Locals:         0       4       0       0       0
  7695 ;;      Temps:          0       0       0       0       0
  7696 ;;      Totals:         4       4       0       0       0
  7697 ;;Total ram usage:        8 bytes
  7698 ;; Hardware stack levels used: 1
  7699 ;; Hardware stack levels required when called: 1
  7700 ;; This function calls:
  7701 ;;		Nothing
  7702 ;; This function is called by:
  7703 ;;		_display_dash_board
  7704 ;;		_log_car_event
  7705 ;;		_login
  7706 ;; This function uses a non-reentrant model
  7707 ;;
  7708                           
  7709     16A6                     ___awdiv:	
  7710                           ;psect for function ___awdiv
  7711                           
  7712     16A6                     l4527:	
  7713                           ;incstack = 0
  7714                           ; Regs used in ___awdiv: [wreg+status,2+status,0+btemp+1]
  7715                           
  7716     16A6  1283               	bcf	3,5	;RP0=0, select bank0
  7717     16A7  1303               	bcf	3,6	;RP1=0, select bank0
  7718     16A8  01A1               	clrf	___awdiv@sign
  7719     16A9                     l4529:
  7720     16A9  1FF4               	btfss	___awdiv@divisor+1,7
  7721     16AA  2EAC               	goto	u3841
  7722     16AB  2EAD               	goto	u3840
  7723     16AC                     u3841:
  7724     16AC  2EB4               	goto	l4535
  7725     16AD                     u3840:
  7726     16AD                     l4531:
  7727     16AD  09F3               	comf	___awdiv@divisor,f
  7728     16AE  09F4               	comf	___awdiv@divisor+1,f
  7729     16AF  0AF3               	incf	___awdiv@divisor,f
  7730     16B0  1903               	skipnz
  7731     16B1  0AF4               	incf	___awdiv@divisor+1,f
  7732     16B2                     l4533:
  7733     16B2  01A1               	clrf	___awdiv@sign
  7734     16B3  0AA1               	incf	___awdiv@sign,f
  7735     16B4                     l4535:
  7736     16B4  1FF6               	btfss	___awdiv@dividend+1,7
  7737     16B5  2EB7               	goto	u3851
  7738     16B6  2EB8               	goto	u3850
  7739     16B7                     u3851:
  7740     16B7  2EC1               	goto	l4541
  7741     16B8                     u3850:
  7742     16B8                     l4537:
  7743     16B8  09F5               	comf	___awdiv@dividend,f
  7744     16B9  09F6               	comf	___awdiv@dividend+1,f
  7745     16BA  0AF5               	incf	___awdiv@dividend,f
  7746     16BB  1903               	skipnz
  7747     16BC  0AF6               	incf	___awdiv@dividend+1,f
  7748     16BD                     l4539:
  7749     16BD  3001               	movlw	1
  7750     16BE  00FF               	movwf	btemp+1
  7751     16BF  087F               	movf	btemp+1,w
  7752     16C0  06A1               	xorwf	___awdiv@sign,f
  7753     16C1                     l4541:
  7754     16C1  01A2               	clrf	___awdiv@quotient
  7755     16C2  01A3               	clrf	___awdiv@quotient+1
  7756     16C3                     l4543:
  7757     16C3  0873               	movf	___awdiv@divisor,w
  7758     16C4  0474               	iorwf	___awdiv@divisor+1,w
  7759     16C5  1903               	btfsc	3,2
  7760     16C6  2EC8               	goto	u3861
  7761     16C7  2EC9               	goto	u3860
  7762     16C8                     u3861:
  7763     16C8  2F00               	goto	l4563
  7764     16C9                     u3860:
  7765     16C9                     l4545:
  7766     16C9  01A0               	clrf	___awdiv@counter
  7767     16CA  0AA0               	incf	___awdiv@counter,f
  7768     16CB  2ED7               	goto	l4551
  7769     16CC                     l4547:
  7770     16CC  3001               	movlw	1
  7771     16CD                     u3875:
  7772     16CD  1003               	clrc
  7773     16CE  0DF3               	rlf	___awdiv@divisor,f
  7774     16CF  0DF4               	rlf	___awdiv@divisor+1,f
  7775     16D0  3EFF               	addlw	-1
  7776     16D1  1D03               	skipz
  7777     16D2  2ECD               	goto	u3875
  7778     16D3                     l4549:
  7779     16D3  3001               	movlw	1
  7780     16D4  00FF               	movwf	btemp+1
  7781     16D5  087F               	movf	btemp+1,w
  7782     16D6  07A0               	addwf	___awdiv@counter,f
  7783     16D7                     l4551:
  7784     16D7  1FF4               	btfss	___awdiv@divisor+1,7
  7785     16D8  2EDA               	goto	u3881
  7786     16D9  2EDB               	goto	u3880
  7787     16DA                     u3881:
  7788     16DA  2ECC               	goto	l4547
  7789     16DB                     u3880:
  7790     16DB                     l4553:
  7791     16DB  3001               	movlw	1
  7792     16DC                     u3895:
  7793     16DC  1003               	clrc
  7794     16DD  0DA2               	rlf	___awdiv@quotient,f
  7795     16DE  0DA3               	rlf	___awdiv@quotient+1,f
  7796     16DF  3EFF               	addlw	-1
  7797     16E0  1D03               	skipz
  7798     16E1  2EDC               	goto	u3895
  7799     16E2  0874               	movf	___awdiv@divisor+1,w
  7800     16E3  0276               	subwf	___awdiv@dividend+1,w
  7801     16E4  1D03               	skipz
  7802     16E5  2EE8               	goto	u3905
  7803     16E6  0873               	movf	___awdiv@divisor,w
  7804     16E7  0275               	subwf	___awdiv@dividend,w
  7805     16E8                     u3905:
  7806     16E8  1C03               	skipc
  7807     16E9  2EEB               	goto	u3901
  7808     16EA  2EEC               	goto	u3900
  7809     16EB                     u3901:
  7810     16EB  2EF3               	goto	l4559
  7811     16EC                     u3900:
  7812     16EC                     l4555:
  7813     16EC  0873               	movf	___awdiv@divisor,w
  7814     16ED  02F5               	subwf	___awdiv@dividend,f
  7815     16EE  0874               	movf	___awdiv@divisor+1,w
  7816     16EF  1C03               	skipc
  7817     16F0  03F6               	decf	___awdiv@dividend+1,f
  7818     16F1  02F6               	subwf	___awdiv@dividend+1,f
  7819     16F2                     l4557:
  7820     16F2  1422               	bsf	___awdiv@quotient,0
  7821     16F3                     l4559:
  7822     16F3  3001               	movlw	1
  7823     16F4                     u3915:
  7824     16F4  1003               	clrc
  7825     16F5  0CF4               	rrf	___awdiv@divisor+1,f
  7826     16F6  0CF3               	rrf	___awdiv@divisor,f
  7827     16F7  3EFF               	addlw	-1
  7828     16F8  1D03               	skipz
  7829     16F9  2EF4               	goto	u3915
  7830     16FA                     l4561:
  7831     16FA  3001               	movlw	1
  7832     16FB  02A0               	subwf	___awdiv@counter,f
  7833     16FC  1D03               	btfss	3,2
  7834     16FD  2EFF               	goto	u3921
  7835     16FE  2F00               	goto	u3920
  7836     16FF                     u3921:
  7837     16FF  2EDB               	goto	l4553
  7838     1700                     u3920:
  7839     1700                     l4563:
  7840     1700  0821               	movf	___awdiv@sign,w
  7841     1701  1903               	btfsc	3,2
  7842     1702  2F04               	goto	u3931
  7843     1703  2F05               	goto	u3930
  7844     1704                     u3931:
  7845     1704  2F0A               	goto	l4567
  7846     1705                     u3930:
  7847     1705                     l4565:
  7848     1705  09A2               	comf	___awdiv@quotient,f
  7849     1706  09A3               	comf	___awdiv@quotient+1,f
  7850     1707  0AA2               	incf	___awdiv@quotient,f
  7851     1708  1903               	skipnz
  7852     1709  0AA3               	incf	___awdiv@quotient+1,f
  7853     170A                     l4567:
  7854     170A  0823               	movf	___awdiv@quotient+1,w
  7855     170B  00F4               	movwf	?___awdiv+1
  7856     170C  0822               	movf	___awdiv@quotient,w
  7857     170D  00F3               	movwf	?___awdiv
  7858     170E                     l797:
  7859     170E  0008               	return
  7860     170F                     __end_of___awdiv:
  7861                           
  7862                           	psect	text29
  7863     1230                     __ptext29:	
  7864 ;; *************** function _clear_log *****************
  7865 ;; Defined at:
  7866 ;;		line 301 in file "display.c"
  7867 ;; Parameters:    Size  Location     Type
  7868 ;;  reset_memory    1    wreg     unsigned char 
  7869 ;; Auto vars:     Size  Location     Type
  7870 ;;  reset_memory    1    7[COMMON] unsigned char 
  7871 ;; Return value:  Size  Location     Type
  7872 ;;                  1    wreg      unsigned char 
  7873 ;; Registers used:
  7874 ;;		wreg, fsr0l, fsr0h, status,2, status,0, btemp+1, pclath, cstack
  7875 ;; Tracked objects:
  7876 ;;		On entry : 0/0
  7877 ;;		On exit  : 0/0
  7878 ;;		Unchanged: 0/0
  7879 ;; Data sizes:     COMMON   BANK0   BANK1   BANK3   BANK2
  7880 ;;      Params:         0       0       0       0       0
  7881 ;;      Locals:         1       0       0       0       0
  7882 ;;      Temps:          0       0       0       0       0
  7883 ;;      Totals:         1       0       0       0       0
  7884 ;;Total ram usage:        1 bytes
  7885 ;; Hardware stack levels used: 1
  7886 ;; Hardware stack levels required when called: 3
  7887 ;; This function calls:
  7888 ;;		_clcd_print
  7889 ;; This function is called by:
  7890 ;;		_main
  7891 ;; This function uses a non-reentrant model
  7892 ;;
  7893                           
  7894     1230                     _clear_log:	
  7895                           ;psect for function _clear_log
  7896                           
  7897                           
  7898                           ;incstack = 0
  7899                           ; Regs used in _clear_log: [wreg-fsr0h+status,2+status,0+btemp+1+pclath+cstack]
  7900                           ;clear_log@reset_memory stored from wreg
  7901     1230  00F7               	movwf	clear_log@reset_memory
  7902     1231                     l5027:
  7903                           
  7904                           ;display.c: 301:   access = -1 ;;display.c: 302:   return 0x11;;display.c: 303:  }
  7905     1231  3019               	movlw	low (STR_28| (0+32768))
  7906     1232  1283               	bcf	3,5	;RP0=0, select bank0
  7907     1233  1303               	bcf	3,6	;RP1=0, select bank0
  7908     1234  00A0               	movwf	clcd_print@str
  7909     1235  3089               	movlw	high (STR_28| (0+32768))
  7910     1236  00A1               	movwf	clcd_print@str+1
  7911     1237  3082               	movlw	130
  7912     1238  00A2               	movwf	clcd_print@addr
  7913     1239  160A  118A  225F  160A  118A  	fcall	_clcd_print
  7914                           
  7915                           ;display.c: 304:  return 0x22;
  7916     123E  3033               	movlw	low (STR_29| (0+32768))
  7917     123F  1283               	bcf	3,5	;RP0=0, select bank0
  7918     1240  1303               	bcf	3,6	;RP1=0, select bank0
  7919     1241  00A0               	movwf	clcd_print@str
  7920     1242  3089               	movlw	high (STR_29| (0+32768))
  7921     1243  00A1               	movwf	clcd_print@str+1
  7922     1244  30C2               	movlw	194
  7923     1245  00A2               	movwf	clcd_print@addr
  7924     1246  160A  118A  225F  160A  118A  	fcall	_clcd_print
  7925     124B                     l5029:
  7926                           
  7927                           ;display.c: 306: 
  7928     124B  3004               	movlw	4
  7929     124C  0677               	xorwf	clear_log@reset_memory,w
  7930     124D  1D03               	btfss	3,2
  7931     124E  2A50               	goto	u4631
  7932     124F  2A51               	goto	u4630
  7933     1250                     u4631:
  7934     1250  2A5D               	goto	l5035
  7935     1251                     u4630:
  7936     1251                     l5031:
  7937                           
  7938                           ;display.c: 307: void download_log(void);display.c: 308: {
  7939     1251  30FF               	movlw	255
  7940     1252  1283               	bcf	3,5	;RP0=0, select bank0
  7941     1253  1303               	bcf	3,6	;RP1=0, select bank0
  7942     1254  00E6               	movwf	_pos
  7943     1255  30FF               	movlw	255
  7944     1256  00E7               	movwf	_pos+1
  7945                           
  7946                           ;display.c: 309:  int next = -1 ;
  7947     1257  30FF               	movlw	255
  7948     1258  00E4               	movwf	_access
  7949     1259  30FF               	movlw	255
  7950     125A  00E5               	movwf	_access+1
  7951                           
  7952                           ;display.c: 310:  char rlog[11];
  7953     125B  3011               	movlw	17
  7954     125C  2A5E               	goto	l377
  7955     125D                     l5035:
  7956                           
  7957                           ;display.c: 312:  int rpos = 0 ;
  7958     125D  3022               	movlw	34
  7959     125E                     l377:
  7960     125E  0008               	return
  7961     125F                     __end_of_clear_log:
  7962                           
  7963                           	psect	text30
  7964     0437                     __ptext30:	
  7965 ;; *************** function _change_time *****************
  7966 ;; Defined at:
  7967 ;;		line 369 in file "display.c"
  7968 ;; Parameters:    Size  Location     Type
  7969 ;;  key             1    wreg     unsigned char 
  7970 ;;  reset_time      1    9[BANK0 ] unsigned char 
  7971 ;; Auto vars:     Size  Location     Type
  7972 ;;  key             1   13[BANK0 ] unsigned char 
  7973 ;;  i               4   14[BANK0 ] unsigned long 
  7974 ;;  dummy           1   18[BANK0 ] unsigned char 
  7975 ;; Return value:  Size  Location     Type
  7976 ;;                  1    wreg      unsigned char 
  7977 ;; Registers used:
  7978 ;;		wreg, fsr0l, fsr0h, status,2, status,0, btemp+1, pclath, cstack
  7979 ;; Tracked objects:
  7980 ;;		On entry : 0/0
  7981 ;;		On exit  : 0/0
  7982 ;;		Unchanged: 0/0
  7983 ;; Data sizes:     COMMON   BANK0   BANK1   BANK3   BANK2
  7984 ;;      Params:         0       1       0       0       0
  7985 ;;      Locals:         0       6       0       0       0
  7986 ;;      Temps:          0       3       0       0       0
  7987 ;;      Totals:         0      10       0       0       0
  7988 ;;Total ram usage:       10 bytes
  7989 ;; Hardware stack levels used: 1
  7990 ;; Hardware stack levels required when called: 5
  7991 ;; This function calls:
  7992 ;;		___awmod
  7993 ;;		___lwdiv
  7994 ;;		___lwmod
  7995 ;;		___wmul
  7996 ;;		_clcd_print
  7997 ;;		_clcd_putch
  7998 ;;		_clcd_write
  7999 ;;		_get_time
  8000 ;;		_write_ds1307
  8001 ;; This function is called by:
  8002 ;;		_main
  8003 ;; This function uses a non-reentrant model
  8004 ;;
  8005                           
  8006     0437                     _change_time:	
  8007                           ;psect for function _change_time
  8008                           
  8009                           
  8010                           ;incstack = 0
  8011                           ; Regs used in _change_time: [wreg-fsr0h+status,2+status,0+btemp+1+pclath+cstack]
  8012                           ;change_time@key stored from wreg
  8013     0437  1283               	bcf	3,5	;RP0=0, select bank0
  8014     0438  1303               	bcf	3,6	;RP1=0, select bank0
  8015     0439  00AD               	movwf	change_time@key
  8016     043A                     l5039:
  8017                           
  8018                           ;display.c: 369:  if ( reset_time == 0x10 );display.c: 370:  {;display.c: 372:   new_tim
      +                          e[0] = (time[0] & 0x0F ) * 10 + (time[1] & 0x0F) ;;display.c: 373:   new_time[1] = (time
      +                          [2] & 0x0F ) * 10 + (time[3] & 0x0F) ;;display.c: 374:   new_time[2] = (time[4] & 0x0F )
      +                           * 10 + (time[5] & 0x0F) ;;display.c: 375:   clcd_print("Time (HH:MM:SS)",(0x80 + 0));;d
      +                          isplay.c: 376:   blink_pos = 2;;display.c: 377:   wait = 0;
  8019     043A  3010               	movlw	16
  8020     043B  0629               	xorwf	change_time@reset_time,w
  8021     043C  1D03               	btfss	3,2
  8022     043D  2C3F               	goto	u4641
  8023     043E  2C40               	goto	u4640
  8024     043F                     u4641:
  8025     043F  2CCD               	goto	l5055
  8026     0440                     u4640:
  8027     0440                     l5041:
  8028                           
  8029                           ;display.c: 378:   blink = 0;;display.c: 379:   key = 0x3F;
  8030     0440  160A  118A  25DB  120A  118A  	fcall	_get_time
  8031                           
  8032                           ;display.c: 380:   t_done = 0;
  8033     0445  300F               	movlw	15
  8034     0446  1683               	bsf	3,5	;RP0=1, select bank1
  8035     0447  1303               	bcf	3,6	;RP1=0, select bank1
  8036     0448  0539               	andwf	(_time^(0+128)+1),w
  8037     0449  1283               	bcf	3,5	;RP0=0, select bank0
  8038     044A  1303               	bcf	3,6	;RP1=0, select bank0
  8039     044B  00AA               	movwf	??_change_time
  8040     044C  1683               	bsf	3,5	;RP0=1, select bank1
  8041     044D  1303               	bcf	3,6	;RP1=0, select bank1
  8042     044E  0838               	movf	_time^(0+128),w
  8043     044F  390F               	andlw	15
  8044     0450  1283               	bcf	3,5	;RP0=0, select bank0
  8045     0451  1303               	bcf	3,6	;RP1=0, select bank0
  8046     0452  00AB               	movwf	??_change_time+1
  8047     0453  01AC               	clrf	??_change_time+2
  8048     0454  082B               	movf	??_change_time+1,w
  8049     0455  00F3               	movwf	___wmul@multiplier
  8050     0456  082C               	movf	??_change_time+2,w
  8051     0457  00F4               	movwf	___wmul@multiplier+1
  8052     0458  300A               	movlw	10
  8053     0459  00F5               	movwf	___wmul@multiplicand
  8054     045A  3000               	movlw	0
  8055     045B  00F6               	movwf	___wmul@multiplicand+1
  8056     045C  160A  118A  2138  120A  118A  	fcall	___wmul
  8057     0461  1283               	bcf	3,5	;RP0=0, select bank0
  8058     0462  1303               	bcf	3,6	;RP1=0, select bank0
  8059     0463  082A               	movf	??_change_time,w
  8060     0464  0773               	addwf	?___wmul,w
  8061     0465  00C2               	movwf	change_time@new_time
  8062     0466  3000               	movlw	0
  8063     0467  1803               	skipnc
  8064     0468  3001               	movlw	1
  8065     0469  0774               	addwf	?___wmul+1,w
  8066     046A  00C3               	movwf	change_time@new_time+1
  8067                           
  8068                           ;display.c: 381:  }
  8069     046B  300F               	movlw	15
  8070     046C  1683               	bsf	3,5	;RP0=1, select bank1
  8071     046D  1303               	bcf	3,6	;RP1=0, select bank1
  8072     046E  053B               	andwf	(_time^(0+128)+3),w
  8073     046F  1283               	bcf	3,5	;RP0=0, select bank0
  8074     0470  1303               	bcf	3,6	;RP1=0, select bank0
  8075     0471  00AA               	movwf	??_change_time
  8076     0472  1683               	bsf	3,5	;RP0=1, select bank1
  8077     0473  1303               	bcf	3,6	;RP1=0, select bank1
  8078     0474  083A               	movf	(_time^(0+128)+2),w
  8079     0475  390F               	andlw	15
  8080     0476  1283               	bcf	3,5	;RP0=0, select bank0
  8081     0477  1303               	bcf	3,6	;RP1=0, select bank0
  8082     0478  00AB               	movwf	??_change_time+1
  8083     0479  01AC               	clrf	??_change_time+2
  8084     047A  082B               	movf	??_change_time+1,w
  8085     047B  00F3               	movwf	___wmul@multiplier
  8086     047C  082C               	movf	??_change_time+2,w
  8087     047D  00F4               	movwf	___wmul@multiplier+1
  8088     047E  300A               	movlw	10
  8089     047F  00F5               	movwf	___wmul@multiplicand
  8090     0480  3000               	movlw	0
  8091     0481  00F6               	movwf	___wmul@multiplicand+1
  8092     0482  160A  118A  2138  120A  118A  	fcall	___wmul
  8093     0487  1283               	bcf	3,5	;RP0=0, select bank0
  8094     0488  1303               	bcf	3,6	;RP1=0, select bank0
  8095     0489  082A               	movf	??_change_time,w
  8096     048A  0773               	addwf	?___wmul,w
  8097     048B  00C4               	movwf	change_time@new_time+2
  8098     048C  3000               	movlw	0
  8099     048D  1803               	skipnc
  8100     048E  3001               	movlw	1
  8101     048F  0774               	addwf	?___wmul+1,w
  8102     0490  00C5               	movwf	change_time@new_time+3
  8103                           
  8104                           ;display.c: 382: 
  8105     0491  300F               	movlw	15
  8106     0492  1683               	bsf	3,5	;RP0=1, select bank1
  8107     0493  1303               	bcf	3,6	;RP1=0, select bank1
  8108     0494  053D               	andwf	(_time^(0+128)+5),w
  8109     0495  1283               	bcf	3,5	;RP0=0, select bank0
  8110     0496  1303               	bcf	3,6	;RP1=0, select bank0
  8111     0497  00AA               	movwf	??_change_time
  8112     0498  1683               	bsf	3,5	;RP0=1, select bank1
  8113     0499  1303               	bcf	3,6	;RP1=0, select bank1
  8114     049A  083C               	movf	(_time^(0+128)+4),w
  8115     049B  390F               	andlw	15
  8116     049C  1283               	bcf	3,5	;RP0=0, select bank0
  8117     049D  1303               	bcf	3,6	;RP1=0, select bank0
  8118     049E  00AB               	movwf	??_change_time+1
  8119     049F  01AC               	clrf	??_change_time+2
  8120     04A0  082B               	movf	??_change_time+1,w
  8121     04A1  00F3               	movwf	___wmul@multiplier
  8122     04A2  082C               	movf	??_change_time+2,w
  8123     04A3  00F4               	movwf	___wmul@multiplier+1
  8124     04A4  300A               	movlw	10
  8125     04A5  00F5               	movwf	___wmul@multiplicand
  8126     04A6  3000               	movlw	0
  8127     04A7  00F6               	movwf	___wmul@multiplicand+1
  8128     04A8  160A  118A  2138  120A  118A  	fcall	___wmul
  8129     04AD  1283               	bcf	3,5	;RP0=0, select bank0
  8130     04AE  1303               	bcf	3,6	;RP1=0, select bank0
  8131     04AF  082A               	movf	??_change_time,w
  8132     04B0  0773               	addwf	?___wmul,w
  8133     04B1  00C6               	movwf	change_time@new_time+4
  8134     04B2  3000               	movlw	0
  8135     04B3  1803               	skipnc
  8136     04B4  3001               	movlw	1
  8137     04B5  0774               	addwf	?___wmul+1,w
  8138     04B6  00C7               	movwf	change_time@new_time+5
  8139     04B7                     l5043:
  8140                           
  8141                           ;display.c: 383:  if( t_done)
  8142     04B7  30B0               	movlw	low (STR_32| (0+32768))
  8143     04B8  00A0               	movwf	clcd_print@str
  8144     04B9  3088               	movlw	high (STR_32| (0+32768))
  8145     04BA  00A1               	movwf	clcd_print@str+1
  8146     04BB  3080               	movlw	128
  8147     04BC  00A2               	movwf	clcd_print@addr
  8148     04BD  160A  118A  225F  120A  118A  	fcall	_clcd_print
  8149     04C2                     l5045:
  8150                           
  8151                           ;display.c: 384:   return 0x22;
  8152     04C2  3002               	movlw	2
  8153     04C3  1283               	bcf	3,5	;RP0=0, select bank0
  8154     04C4  1303               	bcf	3,6	;RP1=0, select bank0
  8155     04C5  00CF               	movwf	change_time@blink_pos
  8156     04C6  3000               	movlw	0
  8157     04C7  00D0               	movwf	change_time@blink_pos+1
  8158     04C8                     l5047:
  8159                           
  8160                           ;display.c: 385: 
  8161     04C8  01DC               	clrf	change_time@wait
  8162     04C9                     l5049:
  8163                           
  8164                           ;display.c: 386:  switch ( key )
  8165     04C9  01DB               	clrf	change_time@blink
  8166     04CA                     l5051:
  8167                           
  8168                           ;display.c: 387:  {
  8169     04CA  303F               	movlw	63
  8170     04CB  00AD               	movwf	change_time@key
  8171     04CC                     l5053:
  8172                           
  8173                           ;display.c: 388: 
  8174     04CC  01DA               	clrf	change_time@t_done
  8175     04CD                     l5055:
  8176                           
  8177                           ;display.c: 391:    break;
  8178     04CD  085A               	movf	change_time@t_done,w
  8179     04CE  1903               	btfsc	3,2
  8180     04CF  2CD1               	goto	u4651
  8181     04D0  2CD2               	goto	u4650
  8182     04D1                     u4651:
  8183     04D1  2E04               	goto	l5105
  8184     04D2                     u4650:
  8185     04D2                     l5057:
  8186                           
  8187                           ;display.c: 392:   case 0x2F :
  8188     04D2  3022               	movlw	34
  8189     04D3  2F2F               	goto	l406
  8190     04D4                     l5061:
  8191                           
  8192                           ;display.c: 398:    dummy = ((new_time[0] / 10 ) << 4 ) | new_time[0] % 10 ;
  8193     04D4  084F               	movf	change_time@blink_pos,w
  8194     04D5  00AA               	movwf	??_change_time
  8195     04D6  072A               	addwf	??_change_time,w
  8196     04D7  3E42               	addlw	(low (change_time@new_time| 0))& (0+255)
  8197     04D8  0084               	movwf	4
  8198     04D9  3001               	movlw	1
  8199     04DA  1383               	bcf	3,7	;select IRP bank0
  8200     04DB  0780               	addwf	0,f
  8201     04DC  0A84               	incf	4,f
  8202     04DD  1803               	skipnc
  8203     04DE  0A80               	incf	0,f
  8204                           
  8205                           ;display.c: 399:    clock_reg[0] = (clock_reg[0] & 0xc0) | dummy ;
  8206     04DF  2E17               	goto	l5107
  8207     04E0                     l5063:
  8208                           
  8209                           ;display.c: 401:    dummy = ((new_time[1] / 10 ) << 4 ) | new_time[1] % 10 ;
  8210     04E0  3003               	movlw	3
  8211     04E1  00F3               	movwf	___awmod@divisor
  8212     04E2  3000               	movlw	0
  8213     04E3  00F4               	movwf	___awmod@divisor+1
  8214     04E4  084F               	movf	change_time@blink_pos,w
  8215     04E5  3E01               	addlw	1
  8216     04E6  00F5               	movwf	___awmod@dividend
  8217     04E7  0850               	movf	change_time@blink_pos+1,w
  8218     04E8  1803               	skipnc
  8219     04E9  3E01               	addlw	1
  8220     04EA  3E00               	addlw	0
  8221     04EB  00F6               	movwf	___awmod@dividend+1
  8222     04EC  120A  158A  2193  120A  118A  	fcall	___awmod
  8223     04F1  0874               	movf	?___awmod+1,w
  8224     04F2  1283               	bcf	3,5	;RP0=0, select bank0
  8225     04F3  1303               	bcf	3,6	;RP1=0, select bank0
  8226     04F4  00D0               	movwf	change_time@blink_pos+1
  8227     04F5  0873               	movf	?___awmod,w
  8228     04F6  00CF               	movwf	change_time@blink_pos
  8229                           
  8230                           ;display.c: 402:    clock_reg[1] = (clock_reg[1] & 0x80) | dummy;
  8231     04F7  2E17               	goto	l5107
  8232     04F8                     l5065:
  8233                           
  8234                           ;display.c: 405:    clock_reg[2] = (clock_reg[2] & 0x80) | dummy;
  8235     04F8  160A  118A  25DB  120A  118A  	fcall	_get_time
  8236     04FD                     l5067:
  8237                           
  8238                           ;display.c: 406:    write_ds1307(0x00, clock_reg[2] );
  8239     04FD  300A               	movlw	10
  8240     04FE  00F3               	movwf	___lwmod@divisor
  8241     04FF  3000               	movlw	0
  8242     0500  00F4               	movwf	___lwmod@divisor+1
  8243     0501  1283               	bcf	3,5	;RP0=0, select bank0
  8244     0502  1303               	bcf	3,6	;RP1=0, select bank0
  8245     0503  0843               	movf	change_time@new_time+1,w
  8246     0504  00F6               	movwf	___lwmod@dividend+1
  8247     0505  0842               	movf	change_time@new_time,w
  8248     0506  00F5               	movwf	___lwmod@dividend
  8249     0507  160A  118A  2334  120A  118A  	fcall	___lwmod
  8250     050C  0873               	movf	?___lwmod,w
  8251     050D  1283               	bcf	3,5	;RP0=0, select bank0
  8252     050E  1303               	bcf	3,6	;RP1=0, select bank0
  8253     050F  00AA               	movwf	??_change_time
  8254     0510  0874               	movf	?___lwmod+1,w
  8255     0511  00AB               	movwf	??_change_time+1
  8256     0512  300A               	movlw	10
  8257     0513  00A0               	movwf	___lwdiv@divisor
  8258     0514  3000               	movlw	0
  8259     0515  00A1               	movwf	___lwdiv@divisor+1
  8260     0516  0843               	movf	change_time@new_time+1,w
  8261     0517  00A3               	movwf	___lwdiv@dividend+1
  8262     0518  0842               	movf	change_time@new_time,w
  8263     0519  00A2               	movwf	___lwdiv@dividend
  8264     051A  160A  118A  23E5  120A  118A  	fcall	___lwdiv
  8265     051F  1283               	bcf	3,5	;RP0=0, select bank0
  8266     0520  1303               	bcf	3,6	;RP1=0, select bank0
  8267     0521  0820               	movf	?___lwdiv,w
  8268     0522  00AC               	movwf	??_change_time+2
  8269     0523  3003               	movlw	3
  8270     0524                     u4665:
  8271     0524  1003               	clrc
  8272     0525  0DAC               	rlf	??_change_time+2,f
  8273     0526  3EFF               	addlw	-1
  8274     0527  1D03               	skipz
  8275     0528  2D24               	goto	u4665
  8276     0529  1003               	clrc
  8277     052A  0D2C               	rlf	??_change_time+2,w
  8278     052B  042A               	iorwf	??_change_time,w
  8279     052C  00B2               	movwf	change_time@dummy
  8280     052D                     l5069:
  8281                           
  8282                           ;display.c: 407:    clcd_write(0x01,0);
  8283     052D  0848               	movf	_clock_reg,w
  8284     052E  39C0               	andlw	192
  8285     052F  0432               	iorwf	change_time@dummy,w
  8286     0530  00C8               	movwf	_clock_reg
  8287     0531                     l5071:
  8288                           
  8289                           ;display.c: 408:    clcd_print("Time changed",(0x80 + 2));
  8290     0531  0848               	movf	_clock_reg,w
  8291     0532  00F4               	movwf	write_ds1307@data
  8292     0533  3002               	movlw	2
  8293     0534  160A  118A  20D6  120A  118A  	fcall	_write_ds1307
  8294     0539                     l5073:
  8295                           
  8296                           ;display.c: 409:    clcd_print("Successfully",(0xC0 + 2));
  8297     0539  300A               	movlw	10
  8298     053A  00F3               	movwf	___lwmod@divisor
  8299     053B  3000               	movlw	0
  8300     053C  00F4               	movwf	___lwmod@divisor+1
  8301     053D  1283               	bcf	3,5	;RP0=0, select bank0
  8302     053E  1303               	bcf	3,6	;RP1=0, select bank0
  8303     053F  0845               	movf	change_time@new_time+3,w
  8304     0540  00F6               	movwf	___lwmod@dividend+1
  8305     0541  0844               	movf	change_time@new_time+2,w
  8306     0542  00F5               	movwf	___lwmod@dividend
  8307     0543  160A  118A  2334  120A  118A  	fcall	___lwmod
  8308     0548  0873               	movf	?___lwmod,w
  8309     0549  1283               	bcf	3,5	;RP0=0, select bank0
  8310     054A  1303               	bcf	3,6	;RP1=0, select bank0
  8311     054B  00AA               	movwf	??_change_time
  8312     054C  0874               	movf	?___lwmod+1,w
  8313     054D  00AB               	movwf	??_change_time+1
  8314     054E  300A               	movlw	10
  8315     054F  00A0               	movwf	___lwdiv@divisor
  8316     0550  3000               	movlw	0
  8317     0551  00A1               	movwf	___lwdiv@divisor+1
  8318     0552  0845               	movf	change_time@new_time+3,w
  8319     0553  00A3               	movwf	___lwdiv@dividend+1
  8320     0554  0844               	movf	change_time@new_time+2,w
  8321     0555  00A2               	movwf	___lwdiv@dividend
  8322     0556  160A  118A  23E5  120A  118A  	fcall	___lwdiv
  8323     055B  1283               	bcf	3,5	;RP0=0, select bank0
  8324     055C  1303               	bcf	3,6	;RP1=0, select bank0
  8325     055D  0820               	movf	?___lwdiv,w
  8326     055E  00AC               	movwf	??_change_time+2
  8327     055F  3003               	movlw	3
  8328     0560                     u4675:
  8329     0560  1003               	clrc
  8330     0561  0DAC               	rlf	??_change_time+2,f
  8331     0562  3EFF               	addlw	-1
  8332     0563  1D03               	skipz
  8333     0564  2D60               	goto	u4675
  8334     0565  1003               	clrc
  8335     0566  0D2C               	rlf	??_change_time+2,w
  8336     0567  042A               	iorwf	??_change_time,w
  8337     0568  00B2               	movwf	change_time@dummy
  8338                           
  8339                           ;display.c: 410:             for(unsigned long int i = 0;i < 20000;i++);
  8340     0569  0849               	movf	_clock_reg+1,w
  8341     056A  3980               	andlw	128
  8342     056B  0432               	iorwf	change_time@dummy,w
  8343     056C  00C9               	movwf	_clock_reg+1
  8344     056D                     l5075:
  8345                           
  8346                           ;display.c: 411:    t_done = 1;
  8347     056D  0849               	movf	_clock_reg+1,w
  8348     056E  00F4               	movwf	write_ds1307@data
  8349     056F  3001               	movlw	1
  8350     0570  160A  118A  20D6  120A  118A  	fcall	_write_ds1307
  8351     0575                     l5077:
  8352                           
  8353                           ;display.c: 412:    return 0x11;
  8354     0575  300A               	movlw	10
  8355     0576  00F3               	movwf	___lwmod@divisor
  8356     0577  3000               	movlw	0
  8357     0578  00F4               	movwf	___lwmod@divisor+1
  8358     0579  1283               	bcf	3,5	;RP0=0, select bank0
  8359     057A  1303               	bcf	3,6	;RP1=0, select bank0
  8360     057B  0847               	movf	change_time@new_time+5,w
  8361     057C  00F6               	movwf	___lwmod@dividend+1
  8362     057D  0846               	movf	change_time@new_time+4,w
  8363     057E  00F5               	movwf	___lwmod@dividend
  8364     057F  160A  118A  2334  120A  118A  	fcall	___lwmod
  8365     0584  0873               	movf	?___lwmod,w
  8366     0585  1283               	bcf	3,5	;RP0=0, select bank0
  8367     0586  1303               	bcf	3,6	;RP1=0, select bank0
  8368     0587  00AA               	movwf	??_change_time
  8369     0588  0874               	movf	?___lwmod+1,w
  8370     0589  00AB               	movwf	??_change_time+1
  8371     058A  300A               	movlw	10
  8372     058B  00A0               	movwf	___lwdiv@divisor
  8373     058C  3000               	movlw	0
  8374     058D  00A1               	movwf	___lwdiv@divisor+1
  8375     058E  0847               	movf	change_time@new_time+5,w
  8376     058F  00A3               	movwf	___lwdiv@dividend+1
  8377     0590  0846               	movf	change_time@new_time+4,w
  8378     0591  00A2               	movwf	___lwdiv@dividend
  8379     0592  160A  118A  23E5  120A  118A  	fcall	___lwdiv
  8380     0597  1283               	bcf	3,5	;RP0=0, select bank0
  8381     0598  1303               	bcf	3,6	;RP1=0, select bank0
  8382     0599  0820               	movf	?___lwdiv,w
  8383     059A  00AC               	movwf	??_change_time+2
  8384     059B  3003               	movlw	3
  8385     059C                     u4685:
  8386     059C  1003               	clrc
  8387     059D  0DAC               	rlf	??_change_time+2,f
  8388     059E  3EFF               	addlw	-1
  8389     059F  1D03               	skipz
  8390     05A0  2D9C               	goto	u4685
  8391     05A1  1003               	clrc
  8392     05A2  0D2C               	rlf	??_change_time+2,w
  8393     05A3  042A               	iorwf	??_change_time,w
  8394     05A4  00B2               	movwf	change_time@dummy
  8395     05A5                     l5079:
  8396                           
  8397                           ;display.c: 413:  }
  8398     05A5  084A               	movf	_clock_reg+2,w
  8399     05A6  3980               	andlw	128
  8400     05A7  0432               	iorwf	change_time@dummy,w
  8401     05A8  00CA               	movwf	_clock_reg+2
  8402     05A9                     l5081:
  8403                           
  8404                           ;display.c: 414: 
  8405     05A9  084A               	movf	_clock_reg+2,w
  8406     05AA  00F4               	movwf	write_ds1307@data
  8407     05AB  3000               	movlw	0
  8408     05AC  160A  118A  20D6  120A  118A  	fcall	_write_ds1307
  8409     05B1                     l5083:
  8410                           
  8411                           ;display.c: 415:  if( new_time[0] > 23 )
  8412     05B1  01F3               	clrf	clcd_write@mode
  8413     05B2  3001               	movlw	1
  8414     05B3  160A  118A  22C6  120A  118A  	fcall	_clcd_write
  8415     05B8                     l5085:
  8416                           
  8417                           ;display.c: 416:   new_time[0] = 0;
  8418     05B8  300C               	movlw	low (STR_33| (0+32768))
  8419     05B9  1283               	bcf	3,5	;RP0=0, select bank0
  8420     05BA  1303               	bcf	3,6	;RP1=0, select bank0
  8421     05BB  00A0               	movwf	clcd_print@str
  8422     05BC  3089               	movlw	high (STR_33| (0+32768))
  8423     05BD  00A1               	movwf	clcd_print@str+1
  8424     05BE  3082               	movlw	130
  8425     05BF  00A2               	movwf	clcd_print@addr
  8426     05C0  160A  118A  225F  120A  118A  	fcall	_clcd_print
  8427     05C5                     l5087:
  8428                           
  8429                           ;display.c: 417:  if ( new_time[1] > 59 )
  8430     05C5  3026               	movlw	low (STR_34| (0+32768))
  8431     05C6  1283               	bcf	3,5	;RP0=0, select bank0
  8432     05C7  1303               	bcf	3,6	;RP1=0, select bank0
  8433     05C8  00A0               	movwf	clcd_print@str
  8434     05C9  3089               	movlw	high (STR_34| (0+32768))
  8435     05CA  00A1               	movwf	clcd_print@str+1
  8436     05CB  30C2               	movlw	194
  8437     05CC  00A2               	movwf	clcd_print@addr
  8438     05CD  160A  118A  225F  120A  118A  	fcall	_clcd_print
  8439     05D2                     l5089:
  8440                           
  8441                           ;display.c: 418:   new_time[1] = 0;
  8442     05D2  3000               	movlw	0
  8443     05D3  1283               	bcf	3,5	;RP0=0, select bank0
  8444     05D4  1303               	bcf	3,6	;RP1=0, select bank0
  8445     05D5  00B1               	movwf	change_time@i+3
  8446     05D6  3000               	movlw	0
  8447     05D7  00B0               	movwf	change_time@i+2
  8448     05D8  3000               	movlw	0
  8449     05D9  00AF               	movwf	change_time@i+1
  8450     05DA  3000               	movlw	0
  8451     05DB  00AE               	movwf	change_time@i
  8452     05DC                     l5095:
  8453     05DC  3001               	movlw	1
  8454     05DD  1283               	bcf	3,5	;RP0=0, select bank0
  8455     05DE  1303               	bcf	3,6	;RP1=0, select bank0
  8456     05DF  07AE               	addwf	change_time@i,f
  8457     05E0  3000               	movlw	0
  8458     05E1  1803               	skipnc
  8459     05E2  3001               	movlw	1
  8460     05E3  07AF               	addwf	change_time@i+1,f
  8461     05E4  3000               	movlw	0
  8462     05E5  1803               	skipnc
  8463     05E6  3001               	movlw	1
  8464     05E7  07B0               	addwf	change_time@i+2,f
  8465     05E8  3000               	movlw	0
  8466     05E9  1803               	skipnc
  8467     05EA  3001               	movlw	1
  8468     05EB  07B1               	addwf	change_time@i+3,f
  8469     05EC                     l5097:
  8470     05EC  0831               	movf	change_time@i+3,w
  8471     05ED  1D03               	btfss	3,2
  8472     05EE  2DFE               	goto	u4690
  8473     05EF  0830               	movf	change_time@i+2,w
  8474     05F0  1D03               	btfss	3,2
  8475     05F1  2DFE               	goto	u4690
  8476     05F2  304E               	movlw	78
  8477     05F3  022F               	subwf	change_time@i+1,w
  8478     05F4  1D03               	skipz
  8479     05F5  2DFA               	goto	u4693
  8480     05F6  3020               	movlw	32
  8481     05F7  022E               	subwf	change_time@i,w
  8482     05F8  1D03               	skipz
  8483     05F9  2DFA               	goto	u4693
  8484     05FA                     u4693:
  8485     05FA  1C03               	btfss	3,0
  8486     05FB  2DFD               	goto	u4691
  8487     05FC  2DFE               	goto	u4690
  8488     05FD                     u4691:
  8489     05FD  2DDC               	goto	l5095
  8490     05FE                     u4690:
  8491     05FE                     l413:
  8492                           
  8493                           ;display.c: 419:  if ( new_time[2] > 59 )
  8494     05FE  1283               	bcf	3,5	;RP0=0, select bank0
  8495     05FF  1303               	bcf	3,6	;RP1=0, select bank0
  8496     0600  01DA               	clrf	change_time@t_done
  8497     0601  0ADA               	incf	change_time@t_done,f
  8498     0602                     l5099:
  8499                           
  8500                           ;display.c: 420:   new_time[2] = 0;
  8501     0602  3011               	movlw	17
  8502     0603  2F2F               	goto	l406
  8503     0604                     l5105:
  8504     0604  082D               	movf	change_time@key,w
  8505     0605  00AA               	movwf	??_change_time
  8506     0606  01AB               	clrf	??_change_time+1
  8507                           
  8508                           ; Switch on 2 bytes has been partitioned into a top level switch of size 1, and 1 sub-sw
      +                          itches
  8509                           ; Switch size 1, requested type "simple"
  8510                           ; Number of cases is 1, Range of values is 0 to 0
  8511                           ; switch strategies available:
  8512                           ; Name         Instructions Cycles
  8513                           ; simple_byte            4     3 (average)
  8514                           ; direct_byte           11     8 (fixed)
  8515                           ; jumptable            260     6 (fixed)
  8516                           ;	Chosen strategy is simple_byte
  8517     0607  082B               	movf	??_change_time+1,w
  8518     0608  3A00               	xorlw	0	; case 0
  8519     0609  1903               	skipnz
  8520     060A  2E0C               	goto	l5737
  8521     060B  2E17               	goto	l5107
  8522     060C                     l5737:
  8523                           
  8524                           ; Switch size 1, requested type "simple"
  8525                           ; Number of cases is 3, Range of values is 31 to 55
  8526                           ; switch strategies available:
  8527                           ; Name         Instructions Cycles
  8528                           ; simple_byte           10     6 (average)
  8529                           ; direct_byte           86    11 (fixed)
  8530                           ; jumptable            263     9 (fixed)
  8531                           ;	Chosen strategy is simple_byte
  8532     060C  082A               	movf	??_change_time,w
  8533     060D  3A1F               	xorlw	31	; case 31
  8534     060E  1903               	skipnz
  8535     060F  2CF8               	goto	l5065
  8536     0610  3A30               	xorlw	48	; case 47
  8537     0611  1903               	skipnz
  8538     0612  2CE0               	goto	l5063
  8539     0613  3A18               	xorlw	24	; case 55
  8540     0614  1903               	skipnz
  8541     0615  2CD4               	goto	l5061
  8542     0616  2E17               	goto	l5107
  8543     0617                     l5107:
  8544                           
  8545                           ;display.c: 423:  {
  8546     0617  3000               	movlw	0
  8547     0618  0243               	subwf	change_time@new_time+1,w
  8548     0619  3018               	movlw	24
  8549     061A  1903               	skipnz
  8550     061B  0242               	subwf	change_time@new_time,w
  8551     061C  1C03               	skipc
  8552     061D  2E1F               	goto	u4701
  8553     061E  2E20               	goto	u4700
  8554     061F                     u4701:
  8555     061F  2E22               	goto	l5111
  8556     0620                     u4700:
  8557     0620                     l5109:
  8558                           
  8559                           ;display.c: 424:   wait = 0;
  8560     0620  01C2               	clrf	change_time@new_time
  8561     0621  01C3               	clrf	change_time@new_time+1
  8562     0622                     l5111:
  8563                           
  8564                           ;display.c: 425:   blink = !blink;
  8565     0622  3000               	movlw	0
  8566     0623  0245               	subwf	change_time@new_time+3,w
  8567     0624  303C               	movlw	60
  8568     0625  1903               	skipnz
  8569     0626  0244               	subwf	change_time@new_time+2,w
  8570     0627  1C03               	skipc
  8571     0628  2E2A               	goto	u4711
  8572     0629  2E2B               	goto	u4710
  8573     062A                     u4711:
  8574     062A  2E2D               	goto	l5115
  8575     062B                     u4710:
  8576     062B                     l5113:
  8577                           
  8578                           ;display.c: 426:   clcd_putch( new_time[0] / 10 + 48, (0xC0 + 0));
  8579     062B  01C4               	clrf	change_time@new_time+2
  8580     062C  01C5               	clrf	change_time@new_time+3
  8581     062D                     l5115:
  8582                           
  8583                           ;display.c: 427:   clcd_putch( new_time[0] % 10 + 48 , (0xC0 + 1));
  8584     062D  3000               	movlw	0
  8585     062E  0247               	subwf	change_time@new_time+5,w
  8586     062F  303C               	movlw	60
  8587     0630  1903               	skipnz
  8588     0631  0246               	subwf	change_time@new_time+4,w
  8589     0632  1C03               	skipc
  8590     0633  2E35               	goto	u4721
  8591     0634  2E36               	goto	u4720
  8592     0635                     u4721:
  8593     0635  2E38               	goto	l5119
  8594     0636                     u4720:
  8595     0636                     l5117:
  8596                           
  8597                           ;display.c: 428:   clcd_putch( ':', (0xC0 + 2));
  8598     0636  01C6               	clrf	change_time@new_time+4
  8599     0637  01C7               	clrf	change_time@new_time+5
  8600     0638                     l5119:
  8601                           
  8602                           ;display.c: 430:   clcd_putch( new_time[1] % 10 + 48, (0xC0 + 4));
  8603     0638  3001               	movlw	1
  8604     0639  00FF               	movwf	btemp+1
  8605     063A  087F               	movf	btemp+1,w
  8606     063B  07DC               	addwf	change_time@wait,f
  8607     063C  3033               	movlw	51
  8608     063D  065C               	xorwf	change_time@wait,w
  8609     063E  1D03               	btfss	3,2
  8610     063F  2E41               	goto	u4731
  8611     0640  2E42               	goto	u4730
  8612     0641                     u4731:
  8613     0641  2CD2               	goto	l5057
  8614     0642                     u4730:
  8615     0642                     l5121:
  8616                           
  8617                           ;display.c: 431:   clcd_putch( ':', (0xC0 + 5));;display.c: 432:   clcd_putch( new_time[
      +                          2] / 10 + 48 , (0xC0 + 6));
  8618     0642  01DC               	clrf	change_time@wait
  8619     0643                     l5123:
  8620                           
  8621                           ;display.c: 433:   clcd_putch( new_time[2] % 10 + 48, (0xC0 + 7));
  8622     0643  085B               	movf	change_time@blink,w
  8623     0644  1903               	btfsc	3,2
  8624     0645  2E47               	goto	u4741
  8625     0646  2E49               	goto	u4740
  8626     0647                     u4741:
  8627     0647  3001               	movlw	1
  8628     0648  2E4A               	goto	u4750
  8629     0649                     u4740:
  8630     0649  3000               	movlw	0
  8631     064A                     u4750:
  8632     064A  00DB               	movwf	change_time@blink
  8633     064B                     l5125:
  8634                           
  8635                           ;display.c: 434: 
  8636     064B  30C0               	movlw	192
  8637     064C  00A7               	movwf	clcd_putch@addr
  8638     064D  300A               	movlw	10
  8639     064E  00A0               	movwf	___lwdiv@divisor
  8640     064F  3000               	movlw	0
  8641     0650  00A1               	movwf	___lwdiv@divisor+1
  8642     0651  0843               	movf	change_time@new_time+1,w
  8643     0652  00A3               	movwf	___lwdiv@dividend+1
  8644     0653  0842               	movf	change_time@new_time,w
  8645     0654  00A2               	movwf	___lwdiv@dividend
  8646     0655  160A  118A  23E5  120A  118A  	fcall	___lwdiv
  8647     065A  1283               	bcf	3,5	;RP0=0, select bank0
  8648     065B  1303               	bcf	3,6	;RP1=0, select bank0
  8649     065C  0820               	movf	?___lwdiv,w
  8650     065D  3E30               	addlw	48
  8651     065E  160A  118A  2058  120A  118A  	fcall	_clcd_putch
  8652     0663                     l5127:
  8653                           
  8654                           ;display.c: 435: 
  8655     0663  30C1               	movlw	193
  8656     0664  1283               	bcf	3,5	;RP0=0, select bank0
  8657     0665  1303               	bcf	3,6	;RP1=0, select bank0
  8658     0666  00A7               	movwf	clcd_putch@addr
  8659     0667  300A               	movlw	10
  8660     0668  00F3               	movwf	___lwmod@divisor
  8661     0669  3000               	movlw	0
  8662     066A  00F4               	movwf	___lwmod@divisor+1
  8663     066B  0843               	movf	change_time@new_time+1,w
  8664     066C  00F6               	movwf	___lwmod@dividend+1
  8665     066D  0842               	movf	change_time@new_time,w
  8666     066E  00F5               	movwf	___lwmod@dividend
  8667     066F  160A  118A  2334  120A  118A  	fcall	___lwmod
  8668     0674  0873               	movf	?___lwmod,w
  8669     0675  3E30               	addlw	48
  8670     0676  160A  118A  2058  120A  118A  	fcall	_clcd_putch
  8671     067B                     l5129:
  8672                           
  8673                           ;display.c: 436:   if ( blink)
  8674     067B  30C2               	movlw	194
  8675     067C  1283               	bcf	3,5	;RP0=0, select bank0
  8676     067D  1303               	bcf	3,6	;RP1=0, select bank0
  8677     067E  00A7               	movwf	clcd_putch@addr
  8678     067F  303A               	movlw	58
  8679     0680  160A  118A  2058  120A  118A  	fcall	_clcd_putch
  8680     0685                     l5131:
  8681                           
  8682                           ;display.c: 437:   {
  8683     0685  30C3               	movlw	195
  8684     0686  1283               	bcf	3,5	;RP0=0, select bank0
  8685     0687  1303               	bcf	3,6	;RP1=0, select bank0
  8686     0688  00A7               	movwf	clcd_putch@addr
  8687     0689  300A               	movlw	10
  8688     068A  00A0               	movwf	___lwdiv@divisor
  8689     068B  3000               	movlw	0
  8690     068C  00A1               	movwf	___lwdiv@divisor+1
  8691     068D  0845               	movf	change_time@new_time+3,w
  8692     068E  00A3               	movwf	___lwdiv@dividend+1
  8693     068F  0844               	movf	change_time@new_time+2,w
  8694     0690  00A2               	movwf	___lwdiv@dividend
  8695     0691  160A  118A  23E5  120A  118A  	fcall	___lwdiv
  8696     0696  1283               	bcf	3,5	;RP0=0, select bank0
  8697     0697  1303               	bcf	3,6	;RP1=0, select bank0
  8698     0698  0820               	movf	?___lwdiv,w
  8699     0699  3E30               	addlw	48
  8700     069A  160A  118A  2058  120A  118A  	fcall	_clcd_putch
  8701     069F                     l5133:
  8702                           
  8703                           ;display.c: 438:    switch( blink_pos )
  8704     069F  30C4               	movlw	196
  8705     06A0  1283               	bcf	3,5	;RP0=0, select bank0
  8706     06A1  1303               	bcf	3,6	;RP1=0, select bank0
  8707     06A2  00A7               	movwf	clcd_putch@addr
  8708     06A3  300A               	movlw	10
  8709     06A4  00F3               	movwf	___lwmod@divisor
  8710     06A5  3000               	movlw	0
  8711     06A6  00F4               	movwf	___lwmod@divisor+1
  8712     06A7  0845               	movf	change_time@new_time+3,w
  8713     06A8  00F6               	movwf	___lwmod@dividend+1
  8714     06A9  0844               	movf	change_time@new_time+2,w
  8715     06AA  00F5               	movwf	___lwmod@dividend
  8716     06AB  160A  118A  2334  120A  118A  	fcall	___lwmod
  8717     06B0  0873               	movf	?___lwmod,w
  8718     06B1  3E30               	addlw	48
  8719     06B2  160A  118A  2058  120A  118A  	fcall	_clcd_putch
  8720     06B7                     l5135:
  8721                           
  8722                           ;display.c: 439:    {
  8723     06B7  30C5               	movlw	197
  8724     06B8  1283               	bcf	3,5	;RP0=0, select bank0
  8725     06B9  1303               	bcf	3,6	;RP1=0, select bank0
  8726     06BA  00A7               	movwf	clcd_putch@addr
  8727     06BB  303A               	movlw	58
  8728     06BC  160A  118A  2058  120A  118A  	fcall	_clcd_putch
  8729     06C1                     l5137:
  8730                           
  8731                           ;display.c: 440:     case 0:
  8732     06C1  30C6               	movlw	198
  8733     06C2  1283               	bcf	3,5	;RP0=0, select bank0
  8734     06C3  1303               	bcf	3,6	;RP1=0, select bank0
  8735     06C4  00A7               	movwf	clcd_putch@addr
  8736     06C5  300A               	movlw	10
  8737     06C6  00A0               	movwf	___lwdiv@divisor
  8738     06C7  3000               	movlw	0
  8739     06C8  00A1               	movwf	___lwdiv@divisor+1
  8740     06C9  0847               	movf	change_time@new_time+5,w
  8741     06CA  00A3               	movwf	___lwdiv@dividend+1
  8742     06CB  0846               	movf	change_time@new_time+4,w
  8743     06CC  00A2               	movwf	___lwdiv@dividend
  8744     06CD  160A  118A  23E5  120A  118A  	fcall	___lwdiv
  8745     06D2  1283               	bcf	3,5	;RP0=0, select bank0
  8746     06D3  1303               	bcf	3,6	;RP1=0, select bank0
  8747     06D4  0820               	movf	?___lwdiv,w
  8748     06D5  3E30               	addlw	48
  8749     06D6  160A  118A  2058  120A  118A  	fcall	_clcd_putch
  8750     06DB                     l5139:
  8751                           
  8752                           ;display.c: 441:      clcd_print("  ",(0xC0 + 0));
  8753     06DB  30C7               	movlw	199
  8754     06DC  1283               	bcf	3,5	;RP0=0, select bank0
  8755     06DD  1303               	bcf	3,6	;RP1=0, select bank0
  8756     06DE  00A7               	movwf	clcd_putch@addr
  8757     06DF  300A               	movlw	10
  8758     06E0  00F3               	movwf	___lwmod@divisor
  8759     06E1  3000               	movlw	0
  8760     06E2  00F4               	movwf	___lwmod@divisor+1
  8761     06E3  0847               	movf	change_time@new_time+5,w
  8762     06E4  00F6               	movwf	___lwmod@dividend+1
  8763     06E5  0846               	movf	change_time@new_time+4,w
  8764     06E6  00F5               	movwf	___lwmod@dividend
  8765     06E7  160A  118A  2334  120A  118A  	fcall	___lwmod
  8766     06EC  0873               	movf	?___lwmod,w
  8767     06ED  3E30               	addlw	48
  8768     06EE  160A  118A  2058  120A  118A  	fcall	_clcd_putch
  8769     06F3                     l5141:
  8770                           
  8771                           ;display.c: 444:      clcd_print("  ",(0xC0 + 3));
  8772     06F3  1283               	bcf	3,5	;RP0=0, select bank0
  8773     06F4  1303               	bcf	3,6	;RP1=0, select bank0
  8774     06F5  085B               	movf	change_time@blink,w
  8775     06F6  1903               	btfsc	3,2
  8776     06F7  2EF9               	goto	u4761
  8777     06F8  2EFA               	goto	u4760
  8778     06F9                     u4761:
  8779     06F9  2CD2               	goto	l5057
  8780     06FA                     u4760:
  8781     06FA  2F1F               	goto	l5153
  8782     06FB                     l5145:
  8783                           
  8784                           ;display.c: 449:    }
  8785     06FB  3024               	movlw	low ((STR_26+15)| (0+32768))
  8786     06FC  00A0               	movwf	clcd_print@str
  8787     06FD  3088               	movlw	high ((STR_26+15)| (0+32768))
  8788     06FE  00A1               	movwf	clcd_print@str+1
  8789     06FF  30C0               	movlw	192
  8790     0700  00A2               	movwf	clcd_print@addr
  8791     0701  160A  118A  225F  120A  118A  	fcall	_clcd_print
  8792                           
  8793                           ;display.c: 450:   }
  8794     0706  2CD2               	goto	l5057
  8795     0707                     l5147:
  8796                           
  8797                           ;display.c: 452:  return 0x22;
  8798     0707  3024               	movlw	low ((STR_26+15)| (0+32768))
  8799     0708  00A0               	movwf	clcd_print@str
  8800     0709  3088               	movlw	high ((STR_26+15)| (0+32768))
  8801     070A  00A1               	movwf	clcd_print@str+1
  8802     070B  30C3               	movlw	195
  8803     070C  00A2               	movwf	clcd_print@addr
  8804     070D  160A  118A  225F  120A  118A  	fcall	_clcd_print
  8805                           
  8806                           ;display.c: 453: }
  8807     0712  2CD2               	goto	l5057
  8808     0713                     l5149:
  8809                           
  8810                           ;display.c: 455: 
  8811     0713  3024               	movlw	low ((STR_26+15)| (0+32768))
  8812     0714  00A0               	movwf	clcd_print@str
  8813     0715  3088               	movlw	high ((STR_26+15)| (0+32768))
  8814     0716  00A1               	movwf	clcd_print@str+1
  8815     0717  30C6               	movlw	198
  8816     0718  00A2               	movwf	clcd_print@addr
  8817     0719  160A  118A  225F  120A  118A  	fcall	_clcd_print
  8818                           
  8819                           ;display.c: 456: 
  8820     071E  2CD2               	goto	l5057
  8821     071F                     l5153:
  8822                           
  8823                           ; Switch on 2 bytes has been partitioned into a top level switch of size 1, and 1 sub-sw
      +                          itches
  8824                           ; Switch size 1, requested type "simple"
  8825                           ; Number of cases is 1, Range of values is 0 to 0
  8826                           ; switch strategies available:
  8827                           ; Name         Instructions Cycles
  8828                           ; simple_byte            4     3 (average)
  8829                           ; direct_byte           11     8 (fixed)
  8830                           ; jumptable            260     6 (fixed)
  8831                           ;	Chosen strategy is simple_byte
  8832     071F  0850               	movf	change_time@blink_pos+1,w
  8833     0720  3A00               	xorlw	0	; case 0
  8834     0721  1903               	skipnz
  8835     0722  2F24               	goto	l5739
  8836     0723  2CD2               	goto	l5057
  8837     0724                     l5739:
  8838                           
  8839                           ; Switch size 1, requested type "simple"
  8840                           ; Number of cases is 3, Range of values is 0 to 2
  8841                           ; switch strategies available:
  8842                           ; Name         Instructions Cycles
  8843                           ; simple_byte           10     6 (average)
  8844                           ; direct_byte           17     8 (fixed)
  8845                           ; jumptable            260     6 (fixed)
  8846                           ;	Chosen strategy is simple_byte
  8847     0724  084F               	movf	change_time@blink_pos,w
  8848     0725  3A00               	xorlw	0	; case 0
  8849     0726  1903               	skipnz
  8850     0727  2EFB               	goto	l5145
  8851     0728  3A01               	xorlw	1	; case 1
  8852     0729  1903               	skipnz
  8853     072A  2F07               	goto	l5147
  8854     072B  3A03               	xorlw	3	; case 2
  8855     072C  1903               	skipnz
  8856     072D  2F13               	goto	l5149
  8857     072E  2CD2               	goto	l5057
  8858     072F                     l406:
  8859     072F  0008               	return
  8860     0730                     __end_of_change_time:
  8861                           
  8862                           	psect	text31
  8863     10D6                     __ptext31:	
  8864 ;; *************** function _write_ds1307 *****************
  8865 ;; Defined at:
  8866 ;;		line 30 in file "d1307.c"
  8867 ;; Parameters:    Size  Location     Type
  8868 ;;  addr            1    wreg     unsigned char 
  8869 ;;  data            1    4[COMMON] unsigned char 
  8870 ;; Auto vars:     Size  Location     Type
  8871 ;;  addr            1    5[COMMON] unsigned char 
  8872 ;; Return value:  Size  Location     Type
  8873 ;;                  1    wreg      void 
  8874 ;; Registers used:
  8875 ;;		wreg, status,2, status,0, pclath, cstack
  8876 ;; Tracked objects:
  8877 ;;		On entry : 0/0
  8878 ;;		On exit  : 0/0
  8879 ;;		Unchanged: 0/0
  8880 ;; Data sizes:     COMMON   BANK0   BANK1   BANK3   BANK2
  8881 ;;      Params:         1       0       0       0       0
  8882 ;;      Locals:         1       0       0       0       0
  8883 ;;      Temps:          0       0       0       0       0
  8884 ;;      Totals:         2       0       0       0       0
  8885 ;;Total ram usage:        2 bytes
  8886 ;; Hardware stack levels used: 1
  8887 ;; Hardware stack levels required when called: 3
  8888 ;; This function calls:
  8889 ;;		_i2c_start
  8890 ;;		_i2c_stop
  8891 ;;		_i2c_write
  8892 ;; This function is called by:
  8893 ;;		_init_ds1307
  8894 ;;		_change_time
  8895 ;; This function uses a non-reentrant model
  8896 ;;
  8897                           
  8898     10D6                     _write_ds1307:	
  8899                           ;psect for function _write_ds1307
  8900                           
  8901                           
  8902                           ;incstack = 0
  8903                           ; Regs used in _write_ds1307: [wreg+status,2+status,0+pclath+cstack]
  8904                           ;write_ds1307@addr stored from wreg
  8905     10D6  00F5               	movwf	write_ds1307@addr
  8906     10D7                     l4303:
  8907                           
  8908                           ;d1307.c: 30: void write_ds1307(unsigned char addr, unsigned char data);d1307.c: 31: {;d
      +                          1307.c: 32:     i2c_start();
  8909     10D7  160A  158A  27B7  160A  118A  	fcall	_i2c_start
  8910                           
  8911                           ;d1307.c: 33:     i2c_write(0b11010000);
  8912     10DC  30D0               	movlw	208
  8913     10DD  160A  158A  27D2  160A  118A  	fcall	_i2c_write
  8914                           
  8915                           ;d1307.c: 34:     i2c_write(addr);
  8916     10E2  0875               	movf	write_ds1307@addr,w
  8917     10E3  160A  158A  27D2  160A  118A  	fcall	_i2c_write
  8918                           
  8919                           ;d1307.c: 35:     i2c_write(data);
  8920     10E8  0874               	movf	write_ds1307@data,w
  8921     10E9  160A  158A  27D2  160A  118A  	fcall	_i2c_write
  8922                           
  8923                           ;d1307.c: 36:     i2c_stop();
  8924     10EE  160A  158A  27C0  160A  118A  	fcall	_i2c_stop
  8925     10F3                     l196:
  8926     10F3  0008               	return
  8927     10F4                     __end_of_write_ds1307:
  8928                           
  8929                           	psect	text32
  8930     15DB                     __ptext32:	
  8931 ;; *************** function _get_time *****************
  8932 ;; Defined at:
  8933 ;;		line 19 in file "display.c"
  8934 ;; Parameters:    Size  Location     Type
  8935 ;;		None
  8936 ;; Auto vars:     Size  Location     Type
  8937 ;;		None
  8938 ;; Return value:  Size  Location     Type
  8939 ;;                  1    wreg      void 
  8940 ;; Registers used:
  8941 ;;		wreg, status,2, status,0, pclath, cstack
  8942 ;; Tracked objects:
  8943 ;;		On entry : 0/0
  8944 ;;		On exit  : 0/0
  8945 ;;		Unchanged: 0/0
  8946 ;; Data sizes:     COMMON   BANK0   BANK1   BANK3   BANK2
  8947 ;;      Params:         0       0       0       0       0
  8948 ;;      Locals:         0       0       0       0       0
  8949 ;;      Temps:          1       0       0       0       0
  8950 ;;      Totals:         1       0       0       0       0
  8951 ;;Total ram usage:        1 bytes
  8952 ;; Hardware stack levels used: 1
  8953 ;; Hardware stack levels required when called: 4
  8954 ;; This function calls:
  8955 ;;		_read_ds1307
  8956 ;; This function is called by:
  8957 ;;		_display_time
  8958 ;;		_log_car_event
  8959 ;;		_change_time
  8960 ;; This function uses a non-reentrant model
  8961 ;;
  8962                           
  8963     15DB                     _get_time:	
  8964                           ;psect for function _get_time
  8965                           
  8966     15DB                     l4305:	
  8967                           ;incstack = 0
  8968                           ; Regs used in _get_time: [wreg+status,2+status,0+pclath+cstack]
  8969                           
  8970                           
  8971                           ;display.c: 21: 
  8972     15DB  3002               	movlw	2
  8973     15DC  160A  118A  21AD  160A  118A  	fcall	_read_ds1307
  8974     15E1  1283               	bcf	3,5	;RP0=0, select bank0
  8975     15E2  1303               	bcf	3,6	;RP1=0, select bank0
  8976     15E3  00C8               	movwf	_clock_reg
  8977                           
  8978                           ;display.c: 22:     time[4] = ((clock_reg[2] >> 4) & 0x07) + '0';
  8979     15E4  3001               	movlw	1
  8980     15E5  160A  118A  21AD  160A  118A  	fcall	_read_ds1307
  8981     15EA  1283               	bcf	3,5	;RP0=0, select bank0
  8982     15EB  1303               	bcf	3,6	;RP1=0, select bank0
  8983     15EC  00C9               	movwf	_clock_reg+1
  8984                           
  8985                           ;display.c: 23:     time[5] = (clock_reg[2] & 0x0F) + '0';
  8986     15ED  3000               	movlw	0
  8987     15EE  160A  118A  21AD  160A  118A  	fcall	_read_ds1307
  8988     15F3  1283               	bcf	3,5	;RP0=0, select bank0
  8989     15F4  1303               	bcf	3,6	;RP1=0, select bank0
  8990     15F5  00CA               	movwf	_clock_reg+2
  8991     15F6                     l4307:
  8992                           
  8993                           ;display.c: 24:     time[6] = '\0';
  8994     15F6  0848               	movf	_clock_reg,w
  8995     15F7  00F7               	movwf	??_get_time
  8996     15F8  3004               	movlw	4
  8997     15F9                     u3495:
  8998     15F9  1003               	clrc
  8999     15FA  0CF7               	rrf	??_get_time,f
  9000     15FB  3EFF               	addlw	-1
  9001     15FC  1D03               	skipz
  9002     15FD  2DF9               	goto	u3495
  9003     15FE  0877               	movf	??_get_time,w
  9004     15FF  3903               	andlw	3
  9005     1600  3E30               	addlw	48
  9006     1601  1683               	bsf	3,5	;RP0=1, select bank1
  9007     1602  1303               	bcf	3,6	;RP1=0, select bank1
  9008     1603  00B8               	movwf	_time^(0+128)
  9009     1604                     l4309:
  9010                           
  9011                           ;display.c: 25: }
  9012     1604  1283               	bcf	3,5	;RP0=0, select bank0
  9013     1605  1303               	bcf	3,6	;RP1=0, select bank0
  9014     1606  0848               	movf	_clock_reg,w
  9015     1607  390F               	andlw	15
  9016     1608  3E30               	addlw	48
  9017     1609  1683               	bsf	3,5	;RP0=1, select bank1
  9018     160A  1303               	bcf	3,6	;RP1=0, select bank1
  9019     160B  00B9               	movwf	(_time^(0+128)+1)
  9020     160C                     l4311:
  9021                           
  9022                           ;display.c: 27: 
  9023     160C  1283               	bcf	3,5	;RP0=0, select bank0
  9024     160D  1303               	bcf	3,6	;RP1=0, select bank0
  9025     160E  0849               	movf	_clock_reg+1,w
  9026     160F  00F7               	movwf	??_get_time
  9027     1610  3004               	movlw	4
  9028     1611                     u3505:
  9029     1611  1003               	clrc
  9030     1612  0CF7               	rrf	??_get_time,f
  9031     1613  3EFF               	addlw	-1
  9032     1614  1D03               	skipz
  9033     1615  2E11               	goto	u3505
  9034     1616  0877               	movf	??_get_time,w
  9035     1617  3907               	andlw	7
  9036     1618  3E30               	addlw	48
  9037     1619  1683               	bsf	3,5	;RP0=1, select bank1
  9038     161A  1303               	bcf	3,6	;RP1=0, select bank1
  9039     161B  00BA               	movwf	(_time^(0+128)+2)
  9040     161C                     l4313:
  9041                           
  9042                           ;display.c: 28: void display_time(void)
  9043     161C  1283               	bcf	3,5	;RP0=0, select bank0
  9044     161D  1303               	bcf	3,6	;RP1=0, select bank0
  9045     161E  0849               	movf	_clock_reg+1,w
  9046     161F  390F               	andlw	15
  9047     1620  3E30               	addlw	48
  9048     1621  1683               	bsf	3,5	;RP0=1, select bank1
  9049     1622  1303               	bcf	3,6	;RP1=0, select bank1
  9050     1623  00BB               	movwf	(_time^(0+128)+3)
  9051     1624                     l4315:
  9052                           
  9053                           ;display.c: 30: 
  9054     1624  1283               	bcf	3,5	;RP0=0, select bank0
  9055     1625  1303               	bcf	3,6	;RP1=0, select bank0
  9056     1626  084A               	movf	_clock_reg+2,w
  9057     1627  00F7               	movwf	??_get_time
  9058     1628  3004               	movlw	4
  9059     1629                     u3515:
  9060     1629  1003               	clrc
  9061     162A  0CF7               	rrf	??_get_time,f
  9062     162B  3EFF               	addlw	-1
  9063     162C  1D03               	skipz
  9064     162D  2E29               	goto	u3515
  9065     162E  0877               	movf	??_get_time,w
  9066     162F  3907               	andlw	7
  9067     1630  3E30               	addlw	48
  9068     1631  1683               	bsf	3,5	;RP0=1, select bank1
  9069     1632  1303               	bcf	3,6	;RP1=0, select bank1
  9070     1633  00BC               	movwf	(_time^(0+128)+4)
  9071     1634                     l4317:
  9072                           
  9073                           ;display.c: 31:     get_time();
  9074     1634  1283               	bcf	3,5	;RP0=0, select bank0
  9075     1635  1303               	bcf	3,6	;RP1=0, select bank0
  9076     1636  084A               	movf	_clock_reg+2,w
  9077     1637  390F               	andlw	15
  9078     1638  3E30               	addlw	48
  9079     1639  1683               	bsf	3,5	;RP0=1, select bank1
  9080     163A  1303               	bcf	3,6	;RP1=0, select bank1
  9081     163B  00BD               	movwf	(_time^(0+128)+5)
  9082     163C                     l4319:
  9083                           
  9084                           ;display.c: 32: 
  9085     163C  01BE               	clrf	(_time^(0+128)+6)
  9086     163D                     l295:
  9087     163D  0008               	return
  9088     163E                     __end_of_get_time:
  9089                           
  9090                           	psect	text33
  9091     11AD                     __ptext33:	
  9092 ;; *************** function _read_ds1307 *****************
  9093 ;; Defined at:
  9094 ;;		line 15 in file "d1307.c"
  9095 ;; Parameters:    Size  Location     Type
  9096 ;;  addr            1    wreg     unsigned char 
  9097 ;; Auto vars:     Size  Location     Type
  9098 ;;  addr            1    5[COMMON] unsigned char 
  9099 ;;  data            1    6[COMMON] unsigned char 
  9100 ;; Return value:  Size  Location     Type
  9101 ;;                  1    wreg      unsigned char 
  9102 ;; Registers used:
  9103 ;;		wreg, status,2, status,0, pclath, cstack
  9104 ;; Tracked objects:
  9105 ;;		On entry : 0/0
  9106 ;;		On exit  : 0/0
  9107 ;;		Unchanged: 0/0
  9108 ;; Data sizes:     COMMON   BANK0   BANK1   BANK3   BANK2
  9109 ;;      Params:         0       0       0       0       0
  9110 ;;      Locals:         2       0       0       0       0
  9111 ;;      Temps:          0       0       0       0       0
  9112 ;;      Totals:         2       0       0       0       0
  9113 ;;Total ram usage:        2 bytes
  9114 ;; Hardware stack levels used: 1
  9115 ;; Hardware stack levels required when called: 3
  9116 ;; This function calls:
  9117 ;;		_i2c_read
  9118 ;;		_i2c_rep_start
  9119 ;;		_i2c_start
  9120 ;;		_i2c_stop
  9121 ;;		_i2c_write
  9122 ;; This function is called by:
  9123 ;;		_init_ds1307
  9124 ;;		_get_time
  9125 ;; This function uses a non-reentrant model
  9126 ;;
  9127                           
  9128     11AD                     _read_ds1307:	
  9129                           ;psect for function _read_ds1307
  9130                           
  9131                           
  9132                           ;incstack = 0
  9133                           ; Regs used in _read_ds1307: [wreg+status,2+status,0+pclath+cstack]
  9134                           ;read_ds1307@addr stored from wreg
  9135     11AD  00F5               	movwf	read_ds1307@addr
  9136     11AE                     l4269:
  9137                           
  9138                           ;d1307.c: 15: unsigned char read_ds1307(unsigned char addr);d1307.c: 16: {;d1307.c: 17: 
      +                              unsigned char data;;d1307.c: 19:     i2c_start();
  9139     11AE  160A  158A  27B7  160A  118A  	fcall	_i2c_start
  9140                           
  9141                           ;d1307.c: 20:     i2c_write(0b11010000);
  9142     11B3  30D0               	movlw	208
  9143     11B4  160A  158A  27D2  160A  118A  	fcall	_i2c_write
  9144                           
  9145                           ;d1307.c: 21:     i2c_write(addr);
  9146     11B9  0875               	movf	read_ds1307@addr,w
  9147     11BA  160A  158A  27D2  160A  118A  	fcall	_i2c_write
  9148                           
  9149                           ;d1307.c: 22:     i2c_rep_start();
  9150     11BF  160A  158A  27C9  160A  118A  	fcall	_i2c_rep_start
  9151                           
  9152                           ;d1307.c: 23:     i2c_write(0b11010001);
  9153     11C4  30D1               	movlw	209
  9154     11C5  160A  158A  27D2  160A  118A  	fcall	_i2c_write
  9155                           
  9156                           ;d1307.c: 24:     data = i2c_read(0);
  9157     11CA  3000               	movlw	0
  9158     11CB  160A  118A  20F4  160A  118A  	fcall	_i2c_read
  9159     11D0  00F6               	movwf	read_ds1307@data
  9160                           
  9161                           ;d1307.c: 25:     i2c_stop();
  9162     11D1  160A  158A  27C0  160A  118A  	fcall	_i2c_stop
  9163     11D6                     l4271:
  9164                           
  9165                           ;d1307.c: 27:     return data;
  9166     11D6  0876               	movf	read_ds1307@data,w
  9167     11D7                     l193:
  9168     11D7  0008               	return
  9169     11D8                     __end_of_read_ds1307:
  9170                           
  9171                           	psect	text34
  9172     1FC9                     __ptext34:	
  9173 ;; *************** function _i2c_rep_start *****************
  9174 ;; Defined at:
  9175 ;;		line 32 in file "i2c.c"
  9176 ;; Parameters:    Size  Location     Type
  9177 ;;		None
  9178 ;; Auto vars:     Size  Location     Type
  9179 ;;		None
  9180 ;; Return value:  Size  Location     Type
  9181 ;;                  1    wreg      void 
  9182 ;; Registers used:
  9183 ;;		wreg, status,2, status,0, pclath, cstack
  9184 ;; Tracked objects:
  9185 ;;		On entry : 0/0
  9186 ;;		On exit  : 0/0
  9187 ;;		Unchanged: 0/0
  9188 ;; Data sizes:     COMMON   BANK0   BANK1   BANK3   BANK2
  9189 ;;      Params:         0       0       0       0       0
  9190 ;;      Locals:         0       0       0       0       0
  9191 ;;      Temps:          0       0       0       0       0
  9192 ;;      Totals:         0       0       0       0       0
  9193 ;;Total ram usage:        0 bytes
  9194 ;; Hardware stack levels used: 1
  9195 ;; Hardware stack levels required when called: 2
  9196 ;; This function calls:
  9197 ;;		_i2c_wait_for_idle
  9198 ;; This function is called by:
  9199 ;;		_read_ds1307
  9200 ;;		_ext_eeprom_24C02_read
  9201 ;; This function uses a non-reentrant model
  9202 ;;
  9203                           
  9204     1FC9                     _i2c_rep_start:	
  9205                           ;psect for function _i2c_rep_start
  9206                           
  9207     1FC9                     l4225:	
  9208                           ;incstack = 0
  9209                           ; Regs used in _i2c_rep_start: [wreg+status,2+status,0+pclath+cstack]
  9210                           
  9211                           
  9212                           ;i2c.c: 34:     i2c_wait_for_idle();
  9213     1FC9  160A  158A  27F3  160A  158A  	fcall	_i2c_wait_for_idle
  9214     1FCE                     l4227:
  9215                           
  9216                           ;i2c.c: 35:     RSEN = 1;
  9217     1FCE  1683               	bsf	3,5	;RP0=1, select bank1
  9218     1FCF  1303               	bcf	3,6	;RP1=0, select bank1
  9219     1FD0  1491               	bsf	17,1	;volatile
  9220     1FD1                     l237:
  9221     1FD1  0008               	return
  9222     1FD2                     __end_of_i2c_rep_start:
  9223                           
  9224                           	psect	text35
  9225     10F4                     __ptext35:	
  9226 ;; *************** function _i2c_read *****************
  9227 ;; Defined at:
  9228 ;;		line 44 in file "i2c.c"
  9229 ;; Parameters:    Size  Location     Type
  9230 ;;  ack             1    wreg     unsigned char 
  9231 ;; Auto vars:     Size  Location     Type
  9232 ;;  ack             1    3[COMMON] unsigned char 
  9233 ;;  data            1    4[COMMON] unsigned char 
  9234 ;; Return value:  Size  Location     Type
  9235 ;;                  1    wreg      unsigned char 
  9236 ;; Registers used:
  9237 ;;		wreg, status,2, status,0, pclath, cstack
  9238 ;; Tracked objects:
  9239 ;;		On entry : 0/0
  9240 ;;		On exit  : 0/0
  9241 ;;		Unchanged: 0/0
  9242 ;; Data sizes:     COMMON   BANK0   BANK1   BANK3   BANK2
  9243 ;;      Params:         0       0       0       0       0
  9244 ;;      Locals:         2       0       0       0       0
  9245 ;;      Temps:          0       0       0       0       0
  9246 ;;      Totals:         2       0       0       0       0
  9247 ;;Total ram usage:        2 bytes
  9248 ;; Hardware stack levels used: 1
  9249 ;; Hardware stack levels required when called: 2
  9250 ;; This function calls:
  9251 ;;		_i2c_wait_for_idle
  9252 ;; This function is called by:
  9253 ;;		_read_ds1307
  9254 ;;		_ext_eeprom_24C02_read
  9255 ;; This function uses a non-reentrant model
  9256 ;;
  9257                           
  9258     10F4                     _i2c_read:	
  9259                           ;psect for function _i2c_read
  9260                           
  9261                           
  9262                           ;incstack = 0
  9263                           ; Regs used in _i2c_read: [wreg+status,2+status,0+pclath+cstack]
  9264                           ;i2c_read@ack stored from wreg
  9265     10F4  00F3               	movwf	i2c_read@ack
  9266     10F5                     l4229:
  9267                           
  9268                           ;i2c.c: 44: unsigned char i2c_read(unsigned char ack);i2c.c: 45: {;i2c.c: 46:     unsign
      +                          ed char data;;i2c.c: 48:     i2c_wait_for_idle();
  9269     10F5  160A  158A  27F3  160A  118A  	fcall	_i2c_wait_for_idle
  9270     10FA                     l4231:
  9271                           
  9272                           ;i2c.c: 49:     RCEN = 1;
  9273     10FA  1683               	bsf	3,5	;RP0=1, select bank1
  9274     10FB  1303               	bcf	3,6	;RP1=0, select bank1
  9275     10FC  1591               	bsf	17,3	;volatile
  9276                           
  9277                           ;i2c.c: 51:     i2c_wait_for_idle();
  9278     10FD  160A  158A  27F3  160A  118A  	fcall	_i2c_wait_for_idle
  9279     1102                     l4233:
  9280                           
  9281                           ;i2c.c: 52:     data = SSPBUF;
  9282     1102  1283               	bcf	3,5	;RP0=0, select bank0
  9283     1103  1303               	bcf	3,6	;RP1=0, select bank0
  9284     1104  0813               	movf	19,w	;volatile
  9285     1105  00F4               	movwf	i2c_read@data
  9286     1106                     l4235:
  9287                           
  9288                           ;i2c.c: 54:     if (ack == 1)
  9289     1106  0373               	decf	i2c_read@ack,w
  9290     1107  1D03               	btfss	3,2
  9291     1108  290A               	goto	u3451
  9292     1109  290B               	goto	u3450
  9293     110A                     u3451:
  9294     110A  290F               	goto	l243
  9295     110B                     u3450:
  9296     110B                     l4237:
  9297                           
  9298                           ;i2c.c: 55:     {;i2c.c: 56:         ACKDT = 1;
  9299     110B  1683               	bsf	3,5	;RP0=1, select bank1
  9300     110C  1303               	bcf	3,6	;RP1=0, select bank1
  9301     110D  1691               	bsf	17,5	;volatile
  9302                           
  9303                           ;i2c.c: 57:     }
  9304     110E  2912               	goto	l244
  9305     110F                     l243:	
  9306                           ;i2c.c: 58:     else
  9307                           
  9308                           
  9309                           ;i2c.c: 59:     {;i2c.c: 60:         ACKDT = 0;
  9310     110F  1683               	bsf	3,5	;RP0=1, select bank1
  9311     1110  1303               	bcf	3,6	;RP1=0, select bank1
  9312     1111  1291               	bcf	17,5	;volatile
  9313     1112                     l244:	
  9314                           ;i2c.c: 61:     }
  9315                           
  9316                           
  9317                           ;i2c.c: 63:     ACKEN = 1;
  9318     1112  1611               	bsf	17,4	;volatile
  9319     1113                     l4239:
  9320                           
  9321                           ;i2c.c: 65:     return data;
  9322     1113  0874               	movf	i2c_read@data,w
  9323     1114                     l245:
  9324     1114  0008               	return
  9325     1115                     __end_of_i2c_read:
  9326                           
  9327                           	psect	text36
  9328     1138                     __ptext36:	
  9329 ;; *************** function ___wmul *****************
  9330 ;; Defined at:
  9331 ;;		line 15 in file "C:\Program Files\Microchip\xc8\v2.45\pic\sources\c99\common\Umul16.c"
  9332 ;; Parameters:    Size  Location     Type
  9333 ;;  multiplier      2    3[COMMON] unsigned int 
  9334 ;;  multiplicand    2    5[COMMON] unsigned int 
  9335 ;; Auto vars:     Size  Location     Type
  9336 ;;  product         2    7[COMMON] unsigned int 
  9337 ;; Return value:  Size  Location     Type
  9338 ;;                  2    3[COMMON] unsigned int 
  9339 ;; Registers used:
  9340 ;;		wreg, status,2, status,0
  9341 ;; Tracked objects:
  9342 ;;		On entry : 0/0
  9343 ;;		On exit  : 0/0
  9344 ;;		Unchanged: 0/0
  9345 ;; Data sizes:     COMMON   BANK0   BANK1   BANK3   BANK2
  9346 ;;      Params:         4       0       0       0       0
  9347 ;;      Locals:         2       0       0       0       0
  9348 ;;      Temps:          0       0       0       0       0
  9349 ;;      Totals:         6       0       0       0       0
  9350 ;;Total ram usage:        6 bytes
  9351 ;; Hardware stack levels used: 1
  9352 ;; Hardware stack levels required when called: 1
  9353 ;; This function calls:
  9354 ;;		Nothing
  9355 ;; This function is called by:
  9356 ;;		_change_time
  9357 ;; This function uses a non-reentrant model
  9358 ;;
  9359                           
  9360     1138                     ___wmul:	
  9361                           ;psect for function ___wmul
  9362                           
  9363     1138                     l4513:	
  9364                           ;incstack = 0
  9365                           ; Regs used in ___wmul: [wreg+status,2+status,0]
  9366                           
  9367     1138  01F7               	clrf	___wmul@product
  9368     1139  01F8               	clrf	___wmul@product+1
  9369     113A                     l4515:
  9370     113A  1C73               	btfss	___wmul@multiplier,0
  9371     113B  293D               	goto	u3801
  9372     113C  293E               	goto	u3800
  9373     113D                     u3801:
  9374     113D  2944               	goto	l644
  9375     113E                     u3800:
  9376     113E                     l4517:
  9377     113E  0875               	movf	___wmul@multiplicand,w
  9378     113F  07F7               	addwf	___wmul@product,f
  9379     1140  1803               	skipnc
  9380     1141  0AF8               	incf	___wmul@product+1,f
  9381     1142  0876               	movf	___wmul@multiplicand+1,w
  9382     1143  07F8               	addwf	___wmul@product+1,f
  9383     1144                     l644:
  9384     1144  3001               	movlw	1
  9385     1145                     u3815:
  9386     1145  1003               	clrc
  9387     1146  0DF5               	rlf	___wmul@multiplicand,f
  9388     1147  0DF6               	rlf	___wmul@multiplicand+1,f
  9389     1148  3EFF               	addlw	-1
  9390     1149  1D03               	skipz
  9391     114A  2945               	goto	u3815
  9392     114B                     l4519:
  9393     114B  3001               	movlw	1
  9394     114C                     u3825:
  9395     114C  1003               	clrc
  9396     114D  0CF4               	rrf	___wmul@multiplier+1,f
  9397     114E  0CF3               	rrf	___wmul@multiplier,f
  9398     114F  3EFF               	addlw	-1
  9399     1150  1D03               	skipz
  9400     1151  294C               	goto	u3825
  9401     1152                     l4521:
  9402     1152  0873               	movf	___wmul@multiplier,w
  9403     1153  0474               	iorwf	___wmul@multiplier+1,w
  9404     1154  1D03               	btfss	3,2
  9405     1155  2957               	goto	u3831
  9406     1156  2958               	goto	u3830
  9407     1157                     u3831:
  9408     1157  293A               	goto	l4515
  9409     1158                     u3830:
  9410     1158                     l4523:
  9411     1158  0878               	movf	___wmul@product+1,w
  9412     1159  00F4               	movwf	?___wmul+1
  9413     115A  0877               	movf	___wmul@product,w
  9414     115B  00F3               	movwf	?___wmul
  9415     115C                     l646:
  9416     115C  0008               	return
  9417     115D                     __end_of___wmul:
  9418                           
  9419                           	psect	text37
  9420     1334                     __ptext37:	
  9421 ;; *************** function ___lwmod *****************
  9422 ;; Defined at:
  9423 ;;		line 5 in file "C:\Program Files\Microchip\xc8\v2.45\pic\sources\c99\common\lwmod.c"
  9424 ;; Parameters:    Size  Location     Type
  9425 ;;  divisor         2    3[COMMON] unsigned int 
  9426 ;;  dividend        2    5[COMMON] unsigned int 
  9427 ;; Auto vars:     Size  Location     Type
  9428 ;;  counter         1    7[COMMON] unsigned char 
  9429 ;; Return value:  Size  Location     Type
  9430 ;;                  2    3[COMMON] unsigned int 
  9431 ;; Registers used:
  9432 ;;		wreg, status,2, status,0, btemp+1
  9433 ;; Tracked objects:
  9434 ;;		On entry : 0/0
  9435 ;;		On exit  : 0/0
  9436 ;;		Unchanged: 0/0
  9437 ;; Data sizes:     COMMON   BANK0   BANK1   BANK3   BANK2
  9438 ;;      Params:         4       0       0       0       0
  9439 ;;      Locals:         1       0       0       0       0
  9440 ;;      Temps:          0       0       0       0       0
  9441 ;;      Totals:         5       0       0       0       0
  9442 ;;Total ram usage:        5 bytes
  9443 ;; Hardware stack levels used: 1
  9444 ;; Hardware stack levels required when called: 1
  9445 ;; This function calls:
  9446 ;;		Nothing
  9447 ;; This function is called by:
  9448 ;;		_change_time
  9449 ;; This function uses a non-reentrant model
  9450 ;;
  9451                           
  9452     1334                     ___lwmod:	
  9453                           ;psect for function ___lwmod
  9454                           
  9455     1334                     l4635:	
  9456                           ;incstack = 0
  9457                           ; Regs used in ___lwmod: [wreg+status,2+status,0+btemp+1]
  9458                           
  9459     1334  0873               	movf	___lwmod@divisor,w
  9460     1335  0474               	iorwf	___lwmod@divisor+1,w
  9461     1336  1903               	btfsc	3,2
  9462     1337  2B39               	goto	u4101
  9463     1338  2B3A               	goto	u4100
  9464     1339                     u4101:
  9465     1339  2B69               	goto	l4653
  9466     133A                     u4100:
  9467     133A                     l4637:
  9468     133A  01F7               	clrf	___lwmod@counter
  9469     133B  0AF7               	incf	___lwmod@counter,f
  9470     133C  2B48               	goto	l4643
  9471     133D                     l4639:
  9472     133D  3001               	movlw	1
  9473     133E                     u4115:
  9474     133E  1003               	clrc
  9475     133F  0DF3               	rlf	___lwmod@divisor,f
  9476     1340  0DF4               	rlf	___lwmod@divisor+1,f
  9477     1341  3EFF               	addlw	-1
  9478     1342  1D03               	skipz
  9479     1343  2B3E               	goto	u4115
  9480     1344                     l4641:
  9481     1344  3001               	movlw	1
  9482     1345  00FF               	movwf	btemp+1
  9483     1346  087F               	movf	btemp+1,w
  9484     1347  07F7               	addwf	___lwmod@counter,f
  9485     1348                     l4643:
  9486     1348  1FF4               	btfss	___lwmod@divisor+1,7
  9487     1349  2B4B               	goto	u4121
  9488     134A  2B4C               	goto	u4120
  9489     134B                     u4121:
  9490     134B  2B3D               	goto	l4639
  9491     134C                     u4120:
  9492     134C                     l4645:
  9493     134C  0874               	movf	___lwmod@divisor+1,w
  9494     134D  0276               	subwf	___lwmod@dividend+1,w
  9495     134E  1D03               	skipz
  9496     134F  2B52               	goto	u4135
  9497     1350  0873               	movf	___lwmod@divisor,w
  9498     1351  0275               	subwf	___lwmod@dividend,w
  9499     1352                     u4135:
  9500     1352  1C03               	skipc
  9501     1353  2B55               	goto	u4131
  9502     1354  2B56               	goto	u4130
  9503     1355                     u4131:
  9504     1355  2B5C               	goto	l4649
  9505     1356                     u4130:
  9506     1356                     l4647:
  9507     1356  0873               	movf	___lwmod@divisor,w
  9508     1357  02F5               	subwf	___lwmod@dividend,f
  9509     1358  0874               	movf	___lwmod@divisor+1,w
  9510     1359  1C03               	skipc
  9511     135A  03F6               	decf	___lwmod@dividend+1,f
  9512     135B  02F6               	subwf	___lwmod@dividend+1,f
  9513     135C                     l4649:
  9514     135C  3001               	movlw	1
  9515     135D                     u4145:
  9516     135D  1003               	clrc
  9517     135E  0CF4               	rrf	___lwmod@divisor+1,f
  9518     135F  0CF3               	rrf	___lwmod@divisor,f
  9519     1360  3EFF               	addlw	-1
  9520     1361  1D03               	skipz
  9521     1362  2B5D               	goto	u4145
  9522     1363                     l4651:
  9523     1363  3001               	movlw	1
  9524     1364  02F7               	subwf	___lwmod@counter,f
  9525     1365  1D03               	btfss	3,2
  9526     1366  2B68               	goto	u4151
  9527     1367  2B69               	goto	u4150
  9528     1368                     u4151:
  9529     1368  2B4C               	goto	l4645
  9530     1369                     u4150:
  9531     1369                     l4653:
  9532     1369  0876               	movf	___lwmod@dividend+1,w
  9533     136A  00F4               	movwf	?___lwmod+1
  9534     136B  0875               	movf	___lwmod@dividend,w
  9535     136C  00F3               	movwf	?___lwmod
  9536     136D                     l934:
  9537     136D  0008               	return
  9538     136E                     __end_of___lwmod:
  9539                           
  9540                           	psect	text38
  9541     13E5                     __ptext38:	
  9542 ;; *************** function ___lwdiv *****************
  9543 ;; Defined at:
  9544 ;;		line 5 in file "C:\Program Files\Microchip\xc8\v2.45\pic\sources\c99\common\lwdiv.c"
  9545 ;; Parameters:    Size  Location     Type
  9546 ;;  divisor         2    0[BANK0 ] unsigned int 
  9547 ;;  dividend        2    2[BANK0 ] unsigned int 
  9548 ;; Auto vars:     Size  Location     Type
  9549 ;;  quotient        2    5[BANK0 ] unsigned int 
  9550 ;;  counter         1    4[BANK0 ] unsigned char 
  9551 ;; Return value:  Size  Location     Type
  9552 ;;                  2    0[BANK0 ] unsigned int 
  9553 ;; Registers used:
  9554 ;;		wreg, status,2, status,0, btemp+1
  9555 ;; Tracked objects:
  9556 ;;		On entry : 0/0
  9557 ;;		On exit  : 0/0
  9558 ;;		Unchanged: 0/0
  9559 ;; Data sizes:     COMMON   BANK0   BANK1   BANK3   BANK2
  9560 ;;      Params:         0       4       0       0       0
  9561 ;;      Locals:         0       3       0       0       0
  9562 ;;      Temps:          0       0       0       0       0
  9563 ;;      Totals:         0       7       0       0       0
  9564 ;;Total ram usage:        7 bytes
  9565 ;; Hardware stack levels used: 1
  9566 ;; Hardware stack levels required when called: 1
  9567 ;; This function calls:
  9568 ;;		Nothing
  9569 ;; This function is called by:
  9570 ;;		_main
  9571 ;;		_change_time
  9572 ;; This function uses a non-reentrant model
  9573 ;;
  9574                           
  9575     13E5                     ___lwdiv:	
  9576                           ;psect for function ___lwdiv
  9577                           
  9578     13E5                     l4609:	
  9579                           ;incstack = 0
  9580                           ; Regs used in ___lwdiv: [wreg+status,2+status,0+btemp+1]
  9581                           
  9582     13E5  1283               	bcf	3,5	;RP0=0, select bank0
  9583     13E6  1303               	bcf	3,6	;RP1=0, select bank0
  9584     13E7  01A5               	clrf	___lwdiv@quotient
  9585     13E8  01A6               	clrf	___lwdiv@quotient+1
  9586     13E9                     l4611:
  9587     13E9  0820               	movf	___lwdiv@divisor,w
  9588     13EA  0421               	iorwf	___lwdiv@divisor+1,w
  9589     13EB  1903               	btfsc	3,2
  9590     13EC  2BEE               	goto	u4031
  9591     13ED  2BEF               	goto	u4030
  9592     13EE                     u4031:
  9593     13EE  2C26               	goto	l4631
  9594     13EF                     u4030:
  9595     13EF                     l4613:
  9596     13EF  01A4               	clrf	___lwdiv@counter
  9597     13F0  0AA4               	incf	___lwdiv@counter,f
  9598     13F1  2BFD               	goto	l4619
  9599     13F2                     l4615:
  9600     13F2  3001               	movlw	1
  9601     13F3                     u4045:
  9602     13F3  1003               	clrc
  9603     13F4  0DA0               	rlf	___lwdiv@divisor,f
  9604     13F5  0DA1               	rlf	___lwdiv@divisor+1,f
  9605     13F6  3EFF               	addlw	-1
  9606     13F7  1D03               	skipz
  9607     13F8  2BF3               	goto	u4045
  9608     13F9                     l4617:
  9609     13F9  3001               	movlw	1
  9610     13FA  00FF               	movwf	btemp+1
  9611     13FB  087F               	movf	btemp+1,w
  9612     13FC  07A4               	addwf	___lwdiv@counter,f
  9613     13FD                     l4619:
  9614     13FD  1FA1               	btfss	___lwdiv@divisor+1,7
  9615     13FE  2C00               	goto	u4051
  9616     13FF  2C01               	goto	u4050
  9617     1400                     u4051:
  9618     1400  2BF2               	goto	l4615
  9619     1401                     u4050:
  9620     1401                     l4621:
  9621     1401  3001               	movlw	1
  9622     1402                     u4065:
  9623     1402  1003               	clrc
  9624     1403  0DA5               	rlf	___lwdiv@quotient,f
  9625     1404  0DA6               	rlf	___lwdiv@quotient+1,f
  9626     1405  3EFF               	addlw	-1
  9627     1406  1D03               	skipz
  9628     1407  2C02               	goto	u4065
  9629     1408  0821               	movf	___lwdiv@divisor+1,w
  9630     1409  0223               	subwf	___lwdiv@dividend+1,w
  9631     140A  1D03               	skipz
  9632     140B  2C0E               	goto	u4075
  9633     140C  0820               	movf	___lwdiv@divisor,w
  9634     140D  0222               	subwf	___lwdiv@dividend,w
  9635     140E                     u4075:
  9636     140E  1C03               	skipc
  9637     140F  2C11               	goto	u4071
  9638     1410  2C12               	goto	u4070
  9639     1411                     u4071:
  9640     1411  2C19               	goto	l4627
  9641     1412                     u4070:
  9642     1412                     l4623:
  9643     1412  0820               	movf	___lwdiv@divisor,w
  9644     1413  02A2               	subwf	___lwdiv@dividend,f
  9645     1414  0821               	movf	___lwdiv@divisor+1,w
  9646     1415  1C03               	skipc
  9647     1416  03A3               	decf	___lwdiv@dividend+1,f
  9648     1417  02A3               	subwf	___lwdiv@dividend+1,f
  9649     1418                     l4625:
  9650     1418  1425               	bsf	___lwdiv@quotient,0
  9651     1419                     l4627:
  9652     1419  3001               	movlw	1
  9653     141A                     u4085:
  9654     141A  1003               	clrc
  9655     141B  0CA1               	rrf	___lwdiv@divisor+1,f
  9656     141C  0CA0               	rrf	___lwdiv@divisor,f
  9657     141D  3EFF               	addlw	-1
  9658     141E  1D03               	skipz
  9659     141F  2C1A               	goto	u4085
  9660     1420                     l4629:
  9661     1420  3001               	movlw	1
  9662     1421  02A4               	subwf	___lwdiv@counter,f
  9663     1422  1D03               	btfss	3,2
  9664     1423  2C25               	goto	u4091
  9665     1424  2C26               	goto	u4090
  9666     1425                     u4091:
  9667     1425  2C01               	goto	l4621
  9668     1426                     u4090:
  9669     1426                     l4631:
  9670     1426  0826               	movf	___lwdiv@quotient+1,w
  9671     1427  00A1               	movwf	?___lwdiv+1
  9672     1428  0825               	movf	___lwdiv@quotient,w
  9673     1429  00A0               	movwf	?___lwdiv
  9674     142A                     l924:
  9675     142A  0008               	return
  9676     142B                     __end_of___lwdiv:
  9677                           
  9678                           	psect	text39
  9679     0993                     __ptext39:	
  9680 ;; *************** function ___awmod *****************
  9681 ;; Defined at:
  9682 ;;		line 5 in file "C:\Program Files\Microchip\xc8\v2.45\pic\sources\c99\common\awmod.c"
  9683 ;; Parameters:    Size  Location     Type
  9684 ;;  divisor         2    3[COMMON] int 
  9685 ;;  dividend        2    5[COMMON] int 
  9686 ;; Auto vars:     Size  Location     Type
  9687 ;;  sign            1    8[COMMON] unsigned char 
  9688 ;;  counter         1    7[COMMON] unsigned char 
  9689 ;; Return value:  Size  Location     Type
  9690 ;;                  2    3[COMMON] int 
  9691 ;; Registers used:
  9692 ;;		wreg, status,2, status,0, btemp+1
  9693 ;; Tracked objects:
  9694 ;;		On entry : 0/0
  9695 ;;		On exit  : 0/0
  9696 ;;		Unchanged: 0/0
  9697 ;; Data sizes:     COMMON   BANK0   BANK1   BANK3   BANK2
  9698 ;;      Params:         4       0       0       0       0
  9699 ;;      Locals:         2       0       0       0       0
  9700 ;;      Temps:          0       0       0       0       0
  9701 ;;      Totals:         6       0       0       0       0
  9702 ;;Total ram usage:        6 bytes
  9703 ;; Hardware stack levels used: 1
  9704 ;; Hardware stack levels required when called: 1
  9705 ;; This function calls:
  9706 ;;		Nothing
  9707 ;; This function is called by:
  9708 ;;		_display_dash_board
  9709 ;;		_log_car_event
  9710 ;;		_view_log
  9711 ;;		_download_log
  9712 ;;		_change_time
  9713 ;;		_login
  9714 ;; This function uses a non-reentrant model
  9715 ;;
  9716                           
  9717     0993                     ___awmod:	
  9718                           ;psect for function ___awmod
  9719                           
  9720     0993                     l4571:	
  9721                           ;incstack = 0
  9722                           ; Regs used in ___awmod: [wreg+status,2+status,0+btemp+1]
  9723                           
  9724     0993  01F8               	clrf	___awmod@sign
  9725     0994                     l4573:
  9726     0994  1FF6               	btfss	___awmod@dividend+1,7
  9727     0995  2997               	goto	u3941
  9728     0996  2998               	goto	u3940
  9729     0997                     u3941:
  9730     0997  299F               	goto	l4579
  9731     0998                     u3940:
  9732     0998                     l4575:
  9733     0998  09F5               	comf	___awmod@dividend,f
  9734     0999  09F6               	comf	___awmod@dividend+1,f
  9735     099A  0AF5               	incf	___awmod@dividend,f
  9736     099B  1903               	skipnz
  9737     099C  0AF6               	incf	___awmod@dividend+1,f
  9738     099D                     l4577:
  9739     099D  01F8               	clrf	___awmod@sign
  9740     099E  0AF8               	incf	___awmod@sign,f
  9741     099F                     l4579:
  9742     099F  1FF4               	btfss	___awmod@divisor+1,7
  9743     09A0  29A2               	goto	u3951
  9744     09A1  29A3               	goto	u3950
  9745     09A2                     u3951:
  9746     09A2  29A8               	goto	l4583
  9747     09A3                     u3950:
  9748     09A3                     l4581:
  9749     09A3  09F3               	comf	___awmod@divisor,f
  9750     09A4  09F4               	comf	___awmod@divisor+1,f
  9751     09A5  0AF3               	incf	___awmod@divisor,f
  9752     09A6  1903               	skipnz
  9753     09A7  0AF4               	incf	___awmod@divisor+1,f
  9754     09A8                     l4583:
  9755     09A8  0873               	movf	___awmod@divisor,w
  9756     09A9  0474               	iorwf	___awmod@divisor+1,w
  9757     09AA  1903               	btfsc	3,2
  9758     09AB  29AD               	goto	u3961
  9759     09AC  29AE               	goto	u3960
  9760     09AD                     u3961:
  9761     09AD  29DD               	goto	l4601
  9762     09AE                     u3960:
  9763     09AE                     l4585:
  9764     09AE  01F7               	clrf	___awmod@counter
  9765     09AF  0AF7               	incf	___awmod@counter,f
  9766     09B0  29BC               	goto	l4591
  9767     09B1                     l4587:
  9768     09B1  3001               	movlw	1
  9769     09B2                     u3975:
  9770     09B2  1003               	clrc
  9771     09B3  0DF3               	rlf	___awmod@divisor,f
  9772     09B4  0DF4               	rlf	___awmod@divisor+1,f
  9773     09B5  3EFF               	addlw	-1
  9774     09B6  1D03               	skipz
  9775     09B7  29B2               	goto	u3975
  9776     09B8                     l4589:
  9777     09B8  3001               	movlw	1
  9778     09B9  00FF               	movwf	btemp+1
  9779     09BA  087F               	movf	btemp+1,w
  9780     09BB  07F7               	addwf	___awmod@counter,f
  9781     09BC                     l4591:
  9782     09BC  1FF4               	btfss	___awmod@divisor+1,7
  9783     09BD  29BF               	goto	u3981
  9784     09BE  29C0               	goto	u3980
  9785     09BF                     u3981:
  9786     09BF  29B1               	goto	l4587
  9787     09C0                     u3980:
  9788     09C0                     l4593:
  9789     09C0  0874               	movf	___awmod@divisor+1,w
  9790     09C1  0276               	subwf	___awmod@dividend+1,w
  9791     09C2  1D03               	skipz
  9792     09C3  29C6               	goto	u3995
  9793     09C4  0873               	movf	___awmod@divisor,w
  9794     09C5  0275               	subwf	___awmod@dividend,w
  9795     09C6                     u3995:
  9796     09C6  1C03               	skipc
  9797     09C7  29C9               	goto	u3991
  9798     09C8  29CA               	goto	u3990
  9799     09C9                     u3991:
  9800     09C9  29D0               	goto	l4597
  9801     09CA                     u3990:
  9802     09CA                     l4595:
  9803     09CA  0873               	movf	___awmod@divisor,w
  9804     09CB  02F5               	subwf	___awmod@dividend,f
  9805     09CC  0874               	movf	___awmod@divisor+1,w
  9806     09CD  1C03               	skipc
  9807     09CE  03F6               	decf	___awmod@dividend+1,f
  9808     09CF  02F6               	subwf	___awmod@dividend+1,f
  9809     09D0                     l4597:
  9810     09D0  3001               	movlw	1
  9811     09D1                     u4005:
  9812     09D1  1003               	clrc
  9813     09D2  0CF4               	rrf	___awmod@divisor+1,f
  9814     09D3  0CF3               	rrf	___awmod@divisor,f
  9815     09D4  3EFF               	addlw	-1
  9816     09D5  1D03               	skipz
  9817     09D6  29D1               	goto	u4005
  9818     09D7                     l4599:
  9819     09D7  3001               	movlw	1
  9820     09D8  02F7               	subwf	___awmod@counter,f
  9821     09D9  1D03               	btfss	3,2
  9822     09DA  29DC               	goto	u4011
  9823     09DB  29DD               	goto	u4010
  9824     09DC                     u4011:
  9825     09DC  29C0               	goto	l4593
  9826     09DD                     u4010:
  9827     09DD                     l4601:
  9828     09DD  0878               	movf	___awmod@sign,w
  9829     09DE  1903               	btfsc	3,2
  9830     09DF  29E1               	goto	u4021
  9831     09E0  29E2               	goto	u4020
  9832     09E1                     u4021:
  9833     09E1  29E7               	goto	l4605
  9834     09E2                     u4020:
  9835     09E2                     l4603:
  9836     09E2  09F5               	comf	___awmod@dividend,f
  9837     09E3  09F6               	comf	___awmod@dividend+1,f
  9838     09E4  0AF5               	incf	___awmod@dividend,f
  9839     09E5  1903               	skipnz
  9840     09E6  0AF6               	incf	___awmod@dividend+1,f
  9841     09E7                     l4605:
  9842     09E7  0876               	movf	___awmod@dividend+1,w
  9843     09E8  00F4               	movwf	?___awmod+1
  9844     09E9  0875               	movf	___awmod@dividend,w
  9845     09EA  00F3               	movwf	?___awmod
  9846     09EB                     l810:
  9847     09EB  0008               	return
  9848     09EC                     __end_of___awmod:
  9849                           
  9850                           	psect	text40
  9851     0B93                     __ptext40:	
  9852 ;; *************** function _change_password *****************
  9853 ;; Defined at:
  9854 ;;		line 465 in file "display.c"
  9855 ;; Parameters:    Size  Location     Type
  9856 ;;  key             1    wreg     unsigned char 
  9857 ;;  reset_pwd       1    9[BANK0 ] unsigned char 
  9858 ;; Auto vars:     Size  Location     Type
  9859 ;;  key             1   12[BANK0 ] unsigned char 
  9860 ;; Return value:  Size  Location     Type
  9861 ;;                  1    wreg      unsigned char 
  9862 ;; Registers used:
  9863 ;;		wreg, fsr0l, fsr0h, status,2, status,0, btemp+1, pclath, cstack
  9864 ;; Tracked objects:
  9865 ;;		On entry : 0/0
  9866 ;;		On exit  : 0/0
  9867 ;;		Unchanged: 0/0
  9868 ;; Data sizes:     COMMON   BANK0   BANK1   BANK3   BANK2
  9869 ;;      Params:         0       1       0       0       0
  9870 ;;      Locals:         0       1       0       0       0
  9871 ;;      Temps:          0       2       0       0       0
  9872 ;;      Totals:         0       4       0       0       0
  9873 ;;Total ram usage:        4 bytes
  9874 ;; Hardware stack levels used: 1
  9875 ;; Hardware stack levels required when called: 5
  9876 ;; This function calls:
  9877 ;;		_clcd_print
  9878 ;;		_clcd_putch
  9879 ;;		_clcd_write
  9880 ;;		_ext_eeprom_24C02_str_write
  9881 ;;		_strncmp
  9882 ;;		_strncpy
  9883 ;; This function is called by:
  9884 ;;		_main
  9885 ;; This function uses a non-reentrant model
  9886 ;;
  9887                           
  9888     0B93                     _change_password:	
  9889                           ;psect for function _change_password
  9890                           
  9891                           
  9892                           ;incstack = 0
  9893                           ; Regs used in _change_password: [wreg-fsr0h+status,2+status,0+btemp+1+pclath+cstack]
  9894                           ;change_password@key stored from wreg
  9895     0B93  1283               	bcf	3,5	;RP0=0, select bank0
  9896     0B94  1303               	bcf	3,6	;RP1=0, select bank0
  9897     0B95  00AC               	movwf	change_password@key
  9898     0B96                     l5171:
  9899                           
  9900                           ;display.c: 465:  if ( reset_pwd == 0x01 );display.c: 466:  {;display.c: 467:   strncpy(
      +                          r_pwd, "    ",4);;display.c: 468:   n_p_pos = 0;;display.c: 469:   p_chg = 0;;display.c:
      +                           473: 
  9901     0B96  0329               	decf	change_password@reset_pwd,w
  9902     0B97  1D03               	btfss	3,2
  9903     0B98  2B9A               	goto	u4771
  9904     0B99  2B9B               	goto	u4770
  9905     0B9A                     u4771:
  9906     0B9A  2BB2               	goto	l5181
  9907     0B9B                     u4770:
  9908     0B9B                     l5173:
  9909                           
  9910                           ;display.c: 474:  if (!return_time);display.c: 475:   return 0x03;
  9911     0B9B  3022               	movlw	low ((STR_26+13)| (0+32768))
  9912     0B9C  00F3               	movwf	strncpy@s
  9913     0B9D  3088               	movlw	high ((STR_26+13)| (0+32768))
  9914     0B9E  00F4               	movwf	strncpy@s+1
  9915     0B9F  3004               	movlw	4
  9916     0BA0  00F5               	movwf	strncpy@n
  9917     0BA1  3000               	movlw	0
  9918     0BA2  00F6               	movwf	strncpy@n+1
  9919     0BA3  30AF               	movlw	(low (change_password@r_pwd| 0))& (0+255)
  9920     0BA4  120A  118A  27B7  120A  158A  	fcall	_strncpy
  9921     0BA9                     l5175:
  9922                           
  9923                           ;display.c: 476: 
  9924     0BA9  1283               	bcf	3,5	;RP0=0, select bank0
  9925     0BAA  1303               	bcf	3,6	;RP1=0, select bank0
  9926     0BAB  01CD               	clrf	change_password@n_p_pos
  9927     0BAC  01CE               	clrf	change_password@n_p_pos+1
  9928     0BAD                     l5177:
  9929                           
  9930                           ;display.c: 477:  if(p_chg)
  9931     0BAD  01D9               	clrf	change_password@p_chg
  9932     0BAE                     l5179:
  9933                           
  9934                           ;display.c: 478:   return 0x22;
  9935     0BAE  301E               	movlw	30
  9936     0BAF  00D5               	movwf	_return_time
  9937     0BB0  3000               	movlw	0
  9938     0BB1  00D6               	movwf	_return_time+1
  9939     0BB2                     l5181:
  9940                           
  9941                           ;display.c: 482: 
  9942     0BB2  0855               	movf	_return_time,w
  9943     0BB3  0456               	iorwf	_return_time+1,w
  9944     0BB4  1D03               	btfss	3,2
  9945     0BB5  2BB7               	goto	u4781
  9946     0BB6  2BB8               	goto	u4780
  9947     0BB7                     u4781:
  9948     0BB7  2BBA               	goto	l5187
  9949     0BB8                     u4780:
  9950     0BB8                     l5183:
  9951                           
  9952                           ;display.c: 483:  else if ( n_p_pos > 3 && n_p_pos < 8 )
  9953     0BB8  3003               	movlw	3
  9954     0BB9  2CEF               	goto	l434
  9955     0BBA                     l5187:
  9956                           
  9957                           ;display.c: 485: 
  9958     0BBA  0859               	movf	change_password@p_chg,w
  9959     0BBB  1903               	btfsc	3,2
  9960     0BBC  2BBE               	goto	u4791
  9961     0BBD  2BBF               	goto	u4790
  9962     0BBE                     u4791:
  9963     0BBE  2BC1               	goto	l5193
  9964     0BBF                     u4790:
  9965     0BBF                     l5189:
  9966                           
  9967                           ;display.c: 486: 
  9968     0BBF  3022               	movlw	34
  9969     0BC0  2CEF               	goto	l434
  9970     0BC1                     l5193:
  9971                           
  9972                           ;display.c: 488: 
  9973     0BC1  084E               	movf	change_password@n_p_pos+1,w
  9974     0BC2  3A80               	xorlw	128
  9975     0BC3  00FF               	movwf	btemp+1
  9976     0BC4  3080               	movlw	128
  9977     0BC5  027F               	subwf	btemp+1,w
  9978     0BC6  1D03               	skipz
  9979     0BC7  2BCA               	goto	u4805
  9980     0BC8  3004               	movlw	4
  9981     0BC9  024D               	subwf	change_password@n_p_pos,w
  9982     0BCA                     u4805:
  9983     0BCA  1803               	skipnc
  9984     0BCB  2BCD               	goto	u4801
  9985     0BCC  2BCE               	goto	u4800
  9986     0BCD                     u4801:
  9987     0BCD  2BDC               	goto	l5197
  9988     0BCE                     u4800:
  9989     0BCE                     l5195:
  9990                           
  9991                           ;display.c: 489:  switch( key)
  9992     0BCE  3027               	movlw	low (STR_39| (0+32768))
  9993     0BCF  1283               	bcf	3,5	;RP0=0, select bank0
  9994     0BD0  1303               	bcf	3,6	;RP1=0, select bank0
  9995     0BD1  00A0               	movwf	clcd_print@str
  9996     0BD2  3088               	movlw	high (STR_39| (0+32768))
  9997     0BD3  00A1               	movwf	clcd_print@str+1
  9998     0BD4  3080               	movlw	128
  9999     0BD5  00A2               	movwf	clcd_print@addr
 10000     0BD6  160A  118A  225F  120A  158A  	fcall	_clcd_print
 10001     0BDB  2C66               	goto	l5229
 10002     0BDC                     l5197:
 10003     0BDC  1283               	bcf	3,5	;RP0=0, select bank0
 10004     0BDD  1303               	bcf	3,6	;RP1=0, select bank0
 10005     0BDE  084E               	movf	change_password@n_p_pos+1,w
 10006     0BDF  3A80               	xorlw	128
 10007     0BE0  00FF               	movwf	btemp+1
 10008     0BE1  3080               	movlw	128
 10009     0BE2  027F               	subwf	btemp+1,w
 10010     0BE3  1D03               	skipz
 10011     0BE4  2BE7               	goto	u4815
 10012     0BE5  3004               	movlw	4
 10013     0BE6  024D               	subwf	change_password@n_p_pos,w
 10014     0BE7                     u4815:
 10015     0BE7  1C03               	skipc
 10016     0BE8  2BEA               	goto	u4811
 10017     0BE9  2BEB               	goto	u4810
 10018     0BEA                     u4811:
 10019     0BEA  2C66               	goto	l5229
 10020     0BEB                     u4810:
 10021     0BEB                     l5199:
 10022     0BEB  1283               	bcf	3,5	;RP0=0, select bank0
 10023     0BEC  1303               	bcf	3,6	;RP1=0, select bank0
 10024     0BED  084E               	movf	change_password@n_p_pos+1,w
 10025     0BEE  3A80               	xorlw	128
 10026     0BEF  00FF               	movwf	btemp+1
 10027     0BF0  3080               	movlw	128
 10028     0BF1  027F               	subwf	btemp+1,w
 10029     0BF2  1D03               	skipz
 10030     0BF3  2BF6               	goto	u4825
 10031     0BF4  3008               	movlw	8
 10032     0BF5  024D               	subwf	change_password@n_p_pos,w
 10033     0BF6                     u4825:
 10034     0BF6  1803               	skipnc
 10035     0BF7  2BF9               	goto	u4821
 10036     0BF8  2BFA               	goto	u4820
 10037     0BF9                     u4821:
 10038     0BF9  2C66               	goto	l5229
 10039     0BFA                     u4820:
 10040     0BFA                     l5201:
 10041                           
 10042                           ;display.c: 492:    r_pwd[n_p_pos] = '0';
 10043     0BFA  3000               	movlw	low (STR_40| (0+32768))
 10044     0BFB  1283               	bcf	3,5	;RP0=0, select bank0
 10045     0BFC  1303               	bcf	3,6	;RP1=0, select bank0
 10046     0BFD  00A0               	movwf	clcd_print@str
 10047     0BFE  3088               	movlw	high (STR_40| (0+32768))
 10048     0BFF  00A1               	movwf	clcd_print@str+1
 10049     0C00  3080               	movlw	128
 10050     0C01  00A2               	movwf	clcd_print@addr
 10051     0C02  160A  118A  225F  120A  158A  	fcall	_clcd_print
 10052     0C07  2C66               	goto	l5229
 10053     0C08                     l5203:
 10054                           
 10055                           ;display.c: 500:   case 0x37 :
 10056     0C08  084D               	movf	change_password@n_p_pos,w
 10057     0C09  3EAF               	addlw	(low (change_password@r_pwd| 0))& (0+255)
 10058     0C0A  0084               	movwf	4
 10059     0C0B  3030               	movlw	48
 10060     0C0C  1383               	bcf	3,7	;select IRP bank1
 10061     0C0D  0080               	movwf	0
 10062     0C0E                     l5205:
 10063                           
 10064                           ;display.c: 501:    r_pwd[n_p_pos] = '1';
 10065     0C0E  084D               	movf	change_password@n_p_pos,w
 10066     0C0F  3903               	andlw	3
 10067     0C10  3EC0               	addlw	192
 10068     0C11  00A7               	movwf	clcd_putch@addr
 10069     0C12  302A               	movlw	42
 10070     0C13  160A  118A  2058  120A  158A  	fcall	_clcd_putch
 10071     0C18                     l5207:
 10072                           
 10073                           ;display.c: 502:    clcd_putch('*',(0xC0 + n_p_pos%4));
 10074     0C18  3001               	movlw	1
 10075     0C19  1283               	bcf	3,5	;RP0=0, select bank0
 10076     0C1A  1303               	bcf	3,6	;RP1=0, select bank0
 10077     0C1B  07CD               	addwf	change_password@n_p_pos,f
 10078     0C1C  1803               	skipnc
 10079     0C1D  0ACE               	incf	change_password@n_p_pos+1,f
 10080     0C1E  3000               	movlw	0
 10081     0C1F  07CE               	addwf	change_password@n_p_pos+1,f
 10082     0C20                     l5209:
 10083                           
 10084                           ;display.c: 503:    n_p_pos++;
 10085     0C20  301E               	movlw	30
 10086     0C21  00D5               	movwf	_return_time
 10087     0C22  3000               	movlw	0
 10088     0C23  00D6               	movwf	_return_time+1
 10089     0C24                     l5211:
 10090                           
 10091                           ;display.c: 504:             return_time = 30;
 10092     0C24  3004               	movlw	4
 10093     0C25  064D               	xorwf	change_password@n_p_pos,w
 10094     0C26  044E               	iorwf	change_password@n_p_pos+1,w
 10095     0C27  1D03               	btfss	3,2
 10096     0C28  2C2A               	goto	u4831
 10097     0C29  2C2B               	goto	u4830
 10098     0C2A                     u4831:
 10099     0C2A  2C78               	goto	l5231
 10100     0C2B                     u4830:
 10101     0C2B                     l5213:
 10102                           
 10103                           ;display.c: 505:             if ( n_p_pos == 4 )
 10104     0C2B  3015               	movlw	low (STR_26| (0+32768))
 10105     0C2C  00A0               	movwf	clcd_print@str
 10106     0C2D  3088               	movlw	high (STR_26| (0+32768))
 10107     0C2E  00A1               	movwf	clcd_print@str+1
 10108     0C2F  30C0               	movlw	192
 10109     0C30  00A2               	movwf	clcd_print@addr
 10110     0C31  160A  118A  225F  120A  158A  	fcall	_clcd_print
 10111     0C36  2C78               	goto	l5231
 10112     0C37                     l5215:
 10113                           
 10114                           ;display.c: 509: 
 10115     0C37  084D               	movf	change_password@n_p_pos,w
 10116     0C38  3EAF               	addlw	(low (change_password@r_pwd| 0))& (0+255)
 10117     0C39  0084               	movwf	4
 10118     0C3A  3031               	movlw	49
 10119     0C3B  1383               	bcf	3,7	;select IRP bank1
 10120     0C3C  0080               	movwf	0
 10121     0C3D                     l5217:
 10122                           
 10123                           ;display.c: 510:  if ( n_p_pos == 8)
 10124     0C3D  084D               	movf	change_password@n_p_pos,w
 10125     0C3E  3903               	andlw	3
 10126     0C3F  3EC0               	addlw	192
 10127     0C40  00A7               	movwf	clcd_putch@addr
 10128     0C41  302A               	movlw	42
 10129     0C42  160A  118A  2058  120A  158A  	fcall	_clcd_putch
 10130     0C47                     l5219:
 10131                           
 10132                           ;display.c: 511:  {
 10133     0C47  3001               	movlw	1
 10134     0C48  1283               	bcf	3,5	;RP0=0, select bank0
 10135     0C49  1303               	bcf	3,6	;RP1=0, select bank0
 10136     0C4A  07CD               	addwf	change_password@n_p_pos,f
 10137     0C4B  1803               	skipnc
 10138     0C4C  0ACE               	incf	change_password@n_p_pos+1,f
 10139     0C4D  3000               	movlw	0
 10140     0C4E  07CE               	addwf	change_password@n_p_pos+1,f
 10141     0C4F                     l5221:
 10142                           
 10143                           ;display.c: 512:   if ( strncmp(r_pwd, &r_pwd[4], 4) == 0 )
 10144     0C4F  301E               	movlw	30
 10145     0C50  00D5               	movwf	_return_time
 10146     0C51  3000               	movlw	0
 10147     0C52  00D6               	movwf	_return_time+1
 10148     0C53                     l5223:
 10149                           
 10150                           ;display.c: 513:   {
 10151     0C53  3004               	movlw	4
 10152     0C54  064D               	xorwf	change_password@n_p_pos,w
 10153     0C55  044E               	iorwf	change_password@n_p_pos+1,w
 10154     0C56  1D03               	btfss	3,2
 10155     0C57  2C59               	goto	u4841
 10156     0C58  2C5A               	goto	u4840
 10157     0C59                     u4841:
 10158     0C59  2C78               	goto	l5231
 10159     0C5A                     u4840:
 10160     0C5A                     l5225:
 10161                           
 10162                           ;display.c: 514: 
 10163     0C5A  3015               	movlw	low (STR_26| (0+32768))
 10164     0C5B  00A0               	movwf	clcd_print@str
 10165     0C5C  3088               	movlw	high (STR_26| (0+32768))
 10166     0C5D  00A1               	movwf	clcd_print@str+1
 10167     0C5E  30C0               	movlw	192
 10168     0C5F  00A2               	movwf	clcd_print@addr
 10169     0C60  160A  118A  225F  120A  158A  	fcall	_clcd_print
 10170     0C65  2C78               	goto	l5231
 10171     0C66                     l5229:
 10172     0C66  1283               	bcf	3,5	;RP0=0, select bank0
 10173     0C67  1303               	bcf	3,6	;RP1=0, select bank0
 10174     0C68  082C               	movf	change_password@key,w
 10175     0C69  00AA               	movwf	??_change_password
 10176     0C6A  01AB               	clrf	??_change_password+1
 10177                           
 10178                           ; Switch on 2 bytes has been partitioned into a top level switch of size 1, and 1 sub-sw
      +                          itches
 10179                           ; Switch size 1, requested type "simple"
 10180                           ; Number of cases is 1, Range of values is 0 to 0
 10181                           ; switch strategies available:
 10182                           ; Name         Instructions Cycles
 10183                           ; simple_byte            4     3 (average)
 10184                           ; direct_byte           11     8 (fixed)
 10185                           ; jumptable            260     6 (fixed)
 10186                           ;	Chosen strategy is simple_byte
 10187     0C6B  082B               	movf	??_change_password+1,w
 10188     0C6C  3A00               	xorlw	0	; case 0
 10189     0C6D  1903               	skipnz
 10190     0C6E  2C70               	goto	l5741
 10191     0C6F  2C78               	goto	l5231
 10192     0C70                     l5741:
 10193                           
 10194                           ; Switch size 1, requested type "simple"
 10195                           ; Number of cases is 2, Range of values is 47 to 55
 10196                           ; switch strategies available:
 10197                           ; Name         Instructions Cycles
 10198                           ; simple_byte            7     4 (average)
 10199                           ; direct_byte           38    11 (fixed)
 10200                           ; jumptable            263     9 (fixed)
 10201                           ;	Chosen strategy is simple_byte
 10202     0C70  082A               	movf	??_change_password,w
 10203     0C71  3A2F               	xorlw	47	; case 47
 10204     0C72  1903               	skipnz
 10205     0C73  2C08               	goto	l5203
 10206     0C74  3A18               	xorlw	24	; case 55
 10207     0C75  1903               	skipnz
 10208     0C76  2C37               	goto	l5215
 10209     0C77  2C78               	goto	l5231
 10210     0C78                     l5231:
 10211                           
 10212                           ;display.c: 518:    clcd_write(0x01,0);
 10213     0C78  3008               	movlw	8
 10214     0C79  1283               	bcf	3,5	;RP0=0, select bank0
 10215     0C7A  1303               	bcf	3,6	;RP1=0, select bank0
 10216     0C7B  064D               	xorwf	change_password@n_p_pos,w
 10217     0C7C  044E               	iorwf	change_password@n_p_pos+1,w
 10218     0C7D  1D03               	btfss	3,2
 10219     0C7E  2C80               	goto	u4851
 10220     0C7F  2C81               	goto	u4850
 10221     0C80                     u4851:
 10222     0C80  2BBF               	goto	l5189
 10223     0C81                     u4850:
 10224     0C81                     l5233:
 10225                           
 10226                           ;display.c: 519:    clcd_print("Password changed",(0x80 + 0));;display.c: 520:    clcd_p
      +                          rint("successfully ",(0xC0 + 2));
 10227     0C81  30B3               	movlw	(low ((change_password@r_pwd| 0+4)))& (0+255)
 10228     0C82  00F3               	movwf	strncmp@r
 10229     0C83  3004               	movlw	4
 10230     0C84  00F4               	movwf	strncmp@n
 10231     0C85  3000               	movlw	0
 10232     0C86  00F5               	movwf	strncmp@n+1
 10233     0C87  30AF               	movlw	(low (change_password@r_pwd| 0))& (0+255)
 10234     0C88  160A  118A  247A  120A  158A  	fcall	_strncmp
 10235     0C8D  0873               	movf	?_strncmp,w
 10236     0C8E  0474               	iorwf	?_strncmp+1,w
 10237     0C8F  1D03               	btfss	3,2
 10238     0C90  2C92               	goto	u4861
 10239     0C91  2C93               	goto	u4860
 10240     0C92                     u4861:
 10241     0C92  2CCD               	goto	l5255
 10242     0C93                     u4860:
 10243     0C93                     l5235:
 10244                           
 10245                           ;display.c: 521:    p_chg = 1;;display.c: 523:   }
 10246     0C93  1683               	bsf	3,5	;RP0=1, select bank1
 10247     0C94  1303               	bcf	3,6	;RP1=0, select bank1
 10248     0C95  01B7               	clrf	(change_password@r_pwd^(0+128)+8)
 10249     0C96                     l5237:
 10250                           
 10251                           ;display.c: 524:   else
 10252     0C96  30B3               	movlw	(low ((change_password@r_pwd| 0+4)))& (0+255)
 10253     0C97  00F6               	movwf	ext_eeprom_24C02_str_write@data
 10254     0C98  3000               	movlw	0
 10255     0C99  160A  118A  209B  120A  158A  	fcall	_ext_eeprom_24C02_str_write
 10256     0C9E                     l5239:
 10257                           
 10258                           ;display.c: 525:   {
 10259     0C9E  3001               	movlw	1
 10260     0C9F  1283               	bcf	3,5	;RP0=0, select bank0
 10261     0CA0  1303               	bcf	3,6	;RP1=0, select bank0
 10262     0CA1  07CD               	addwf	change_password@n_p_pos,f
 10263     0CA2  1803               	skipnc
 10264     0CA3  0ACE               	incf	change_password@n_p_pos+1,f
 10265     0CA4  3000               	movlw	0
 10266     0CA5  07CE               	addwf	change_password@n_p_pos+1,f
 10267     0CA6                     l5241:
 10268                           
 10269                           ;display.c: 526: 
 10270     0CA6  01F3               	clrf	clcd_write@mode
 10271     0CA7  3001               	movlw	1
 10272     0CA8  160A  118A  22C6  120A  158A  	fcall	_clcd_write
 10273     0CAD                     l5243:
 10274                           
 10275                           ;display.c: 527:    clcd_write(0x01,0);
 10276     0CAD  306C               	movlw	low (STR_43| (0+32768))
 10277     0CAE  1283               	bcf	3,5	;RP0=0, select bank0
 10278     0CAF  1303               	bcf	3,6	;RP1=0, select bank0
 10279     0CB0  00A0               	movwf	clcd_print@str
 10280     0CB1  3088               	movlw	high (STR_43| (0+32768))
 10281     0CB2  00A1               	movwf	clcd_print@str+1
 10282     0CB3  3080               	movlw	128
 10283     0CB4  00A2               	movwf	clcd_print@addr
 10284     0CB5  160A  118A  225F  120A  158A  	fcall	_clcd_print
 10285     0CBA                     l5245:
 10286                           
 10287                           ;display.c: 528:    clcd_print ( "Password  change" , (0x80 + 0));
 10288     0CBA  30FE               	movlw	low (STR_44| (0+32768))
 10289     0CBB  1283               	bcf	3,5	;RP0=0, select bank0
 10290     0CBC  1303               	bcf	3,6	;RP1=0, select bank0
 10291     0CBD  00A0               	movwf	clcd_print@str
 10292     0CBE  3088               	movlw	high (STR_44| (0+32768))
 10293     0CBF  00A1               	movwf	clcd_print@str+1
 10294     0CC0  30C2               	movlw	194
 10295     0CC1  00A2               	movwf	clcd_print@addr
 10296     0CC2  160A  118A  225F  120A  158A  	fcall	_clcd_print
 10297     0CC7                     l5247:
 10298                           
 10299                           ;display.c: 529:    clcd_print("failed",(0xC0 + 5));
 10300     0CC7  1283               	bcf	3,5	;RP0=0, select bank0
 10301     0CC8  1303               	bcf	3,6	;RP1=0, select bank0
 10302     0CC9  01D9               	clrf	change_password@p_chg
 10303     0CCA  0AD9               	incf	change_password@p_chg,f
 10304     0CCB                     l5249:
 10305                           
 10306                           ;display.c: 530:    p_chg = 1;
 10307     0CCB  3011               	movlw	17
 10308     0CCC  2CEF               	goto	l434
 10309     0CCD                     l5255:
 10310                           
 10311                           ;display.c: 533:  };display.c: 535:  return 0x22;
 10312     0CCD  01F3               	clrf	clcd_write@mode
 10313     0CCE  3001               	movlw	1
 10314     0CCF  160A  118A  22C6  120A  158A  	fcall	_clcd_write
 10315     0CD4                     l5257:
 10316                           
 10317                           ;display.c: 536: }
 10318     0CD4  307D               	movlw	low (STR_45| (0+32768))
 10319     0CD5  1283               	bcf	3,5	;RP0=0, select bank0
 10320     0CD6  1303               	bcf	3,6	;RP1=0, select bank0
 10321     0CD7  00A0               	movwf	clcd_print@str
 10322     0CD8  3088               	movlw	high (STR_45| (0+32768))
 10323     0CD9  00A1               	movwf	clcd_print@str+1
 10324     0CDA  3080               	movlw	128
 10325     0CDB  00A2               	movwf	clcd_print@addr
 10326     0CDC  160A  118A  225F  120A  158A  	fcall	_clcd_print
 10327     0CE1                     l5259:
 10328     0CE1  3064               	movlw	low (STR_46| (0+32768))
 10329     0CE2  1283               	bcf	3,5	;RP0=0, select bank0
 10330     0CE3  1303               	bcf	3,6	;RP1=0, select bank0
 10331     0CE4  00A0               	movwf	clcd_print@str
 10332     0CE5  3089               	movlw	high (STR_46| (0+32768))
 10333     0CE6  00A1               	movwf	clcd_print@str+1
 10334     0CE7  30C5               	movlw	197
 10335     0CE8  00A2               	movwf	clcd_print@addr
 10336     0CE9  160A  118A  225F  120A  158A  	fcall	_clcd_print
 10337     0CEE  2CC7               	goto	l5247
 10338     0CEF                     l434:
 10339     0CEF  0008               	return
 10340     0CF0                     __end_of_change_password:
 10341                           
 10342                           	psect	text41
 10343     07B7                     __ptext41:	
 10344 ;; *************** function _strncpy *****************
 10345 ;; Defined at:
 10346 ;;		line 3 in file "C:\Program Files\Microchip\xc8\v2.45\pic\sources\c99\common\strncpy.c"
 10347 ;; Parameters:    Size  Location     Type
 10348 ;;  d               1    wreg     PTR unsigned char 
 10349 ;;		 -> change_password@r_pwd(9), log(11), 
 10350 ;;  s               2    3[COMMON] PTR const unsigned char 
 10351 ;;		 -> STR_38(5), time(7), STR_13(3), STR_12(3), 
 10352 ;;		 -> STR_11(3), STR_10(3), main@event(3), 
 10353 ;;  n               2    5[COMMON] unsigned int 
 10354 ;; Auto vars:     Size  Location     Type
 10355 ;;  d               1    0[BANK0 ] PTR unsigned char 
 10356 ;;		 -> change_password@r_pwd(9), log(11), 
 10357 ;;  cp              1    1[BANK0 ] PTR unsigned char 
 10358 ;;		 -> change_password@r_pwd(9), log(11), 
 10359 ;; Return value:  Size  Location     Type
 10360 ;;                  1    wreg      PTR unsigned char 
 10361 ;; Registers used:
 10362 ;;		wreg, fsr0l, fsr0h, status,2, status,0, btemp+1, pclath
 10363 ;; Tracked objects:
 10364 ;;		On entry : 0/0
 10365 ;;		On exit  : 0/0
 10366 ;;		Unchanged: 0/0
 10367 ;; Data sizes:     COMMON   BANK0   BANK1   BANK3   BANK2
 10368 ;;      Params:         4       0       0       0       0
 10369 ;;      Locals:         0       2       0       0       0
 10370 ;;      Temps:          2       0       0       0       0
 10371 ;;      Totals:         6       2       0       0       0
 10372 ;;Total ram usage:        8 bytes
 10373 ;; Hardware stack levels used: 2
 10374 ;; Hardware stack levels required when called: 1
 10375 ;; This function calls:
 10376 ;;		Nothing
 10377 ;; This function is called by:
 10378 ;;		_log_car_event
 10379 ;;		_change_password
 10380 ;; This function uses a non-reentrant model
 10381 ;;
 10382                           
 10383     07B7                     _strncpy:	
 10384                           ;psect for function _strncpy
 10385                           
 10386                           
 10387                           ;incstack = 0
 10388                           ; Regs used in _strncpy: [wreg-fsr0h+status,2+status,0+btemp+1+pclath]
 10389                           ;strncpy@d stored from wreg
 10390     07B7  1283               	bcf	3,5	;RP0=0, select bank0
 10391     07B8  1303               	bcf	3,6	;RP1=0, select bank0
 10392     07B9  00A0               	movwf	strncpy@d
 10393     07BA                     l4441:
 10394     07BA  0820               	movf	strncpy@d,w
 10395     07BB  00A1               	movwf	strncpy@cp
 10396     07BC  2FE1               	goto	l4449
 10397     07BD                     l4443:
 10398     07BD  3001               	movlw	1
 10399     07BE  02F5               	subwf	strncpy@n,f
 10400     07BF  3000               	movlw	0
 10401     07C0  1C03               	skipc
 10402     07C1  03F6               	decf	strncpy@n+1,f
 10403     07C2  02F6               	subwf	strncpy@n+1,f
 10404     07C3                     l4445:
 10405     07C3  0874               	movf	strncpy@s+1,w
 10406     07C4  00F8               	movwf	??_strncpy+1
 10407     07C5  0873               	movf	strncpy@s,w
 10408     07C6  00F7               	movwf	??_strncpy
 10409     07C7  0AF3               	incf	strncpy@s,f
 10410     07C8  1903               	skipnz
 10411     07C9  0AF4               	incf	strncpy@s+1,f
 10412     07CA  0878               	movf	??_strncpy+1,w
 10413     07CB  00FF               	movwf	btemp+1
 10414     07CC  0877               	movf	??_strncpy,w
 10415     07CD  0084               	movwf	4
 10416     07CE  160A  118A  2000  120A  118A  	fcall	stringtab
 10417     07D3  00FF               	movwf	btemp+1
 10418     07D4  0821               	movf	strncpy@cp,w
 10419     07D5  0084               	movwf	4
 10420     07D6  3001               	movlw	1
 10421     07D7  07A1               	addwf	strncpy@cp,f
 10422     07D8  087F               	movf	btemp+1,w
 10423     07D9  1383               	bcf	3,7	;select IRP bank0
 10424     07DA  0080               	movwf	0
 10425     07DB  0800               	movf	0,w
 10426     07DC  1D03               	btfss	3,2
 10427     07DD  2FDF               	goto	u3681
 10428     07DE  2FE0               	goto	u3680
 10429     07DF                     u3681:
 10430     07DF  2FE1               	goto	l4449
 10431     07E0                     u3680:
 10432     07E0  2FF0               	goto	l4455
 10433     07E1                     l4449:
 10434     07E1  0875               	movf	strncpy@n,w
 10435     07E2  0476               	iorwf	strncpy@n+1,w
 10436     07E3  1D03               	btfss	3,2
 10437     07E4  2FE6               	goto	u3691
 10438     07E5  2FE7               	goto	u3690
 10439     07E6                     u3691:
 10440     07E6  2FBD               	goto	l4443
 10441     07E7                     u3690:
 10442     07E7  2FF0               	goto	l4455
 10443     07E8                     l4451:
 10444     07E8  0821               	movf	strncpy@cp,w
 10445     07E9  0084               	movwf	4
 10446     07EA  1383               	bcf	3,7	;select IRP bank0
 10447     07EB  0180               	clrf	0
 10448     07EC                     l4453:
 10449     07EC  3001               	movlw	1
 10450     07ED  00FF               	movwf	btemp+1
 10451     07EE  087F               	movf	btemp+1,w
 10452     07EF  07A1               	addwf	strncpy@cp,f
 10453     07F0                     l4455:
 10454     07F0  3001               	movlw	1
 10455     07F1  02F5               	subwf	strncpy@n,f
 10456     07F2  3000               	movlw	0
 10457     07F3  1C03               	skipc
 10458     07F4  03F6               	decf	strncpy@n+1,f
 10459     07F5  02F6               	subwf	strncpy@n+1,f
 10460     07F6  0A75               	incf	strncpy@n,w
 10461     07F7  1D03               	skipz
 10462     07F8  2FFD               	goto	u3701
 10463     07F9  0A76               	incf	strncpy@n+1,w
 10464     07FA  1D03               	btfss	3,2
 10465     07FB  2FFD               	goto	u3701
 10466     07FC  2FFE               	goto	u3700
 10467     07FD                     u3701:
 10468     07FD  2FE8               	goto	l4451
 10469     07FE                     u3700:
 10470     07FE                     l1133:
 10471     07FE  0008               	return
 10472     07FF                     __end_of_strncpy:
 10473                           
 10474                           	psect	text42
 10475     147A                     __ptext42:	
 10476 ;; *************** function _strncmp *****************
 10477 ;; Defined at:
 10478 ;;		line 3 in file "C:\Program Files\Microchip\xc8\v2.45\pic\sources\c99\common\strncmp.c"
 10479 ;; Parameters:    Size  Location     Type
 10480 ;;  l               1    wreg     PTR const unsigned char 
 10481 ;;		 -> change_password@r_pwd(9), 
 10482 ;;  r               1    3[COMMON] PTR const unsigned char 
 10483 ;;		 -> change_password@r_pwd(9), 
 10484 ;;  n               2    4[COMMON] unsigned int 
 10485 ;; Auto vars:     Size  Location     Type
 10486 ;;  l               1    8[COMMON] PTR const unsigned char 
 10487 ;;		 -> change_password@r_pwd(9), 
 10488 ;; Return value:  Size  Location     Type
 10489 ;;                  2    3[COMMON] int 
 10490 ;; Registers used:
 10491 ;;		wreg, fsr0l, fsr0h, status,2, status,0, btemp+1
 10492 ;; Tracked objects:
 10493 ;;		On entry : 0/0
 10494 ;;		On exit  : 0/0
 10495 ;;		Unchanged: 0/0
 10496 ;; Data sizes:     COMMON   BANK0   BANK1   BANK3   BANK2
 10497 ;;      Params:         3       0       0       0       0
 10498 ;;      Locals:         1       0       0       0       0
 10499 ;;      Temps:          2       0       0       0       0
 10500 ;;      Totals:         6       0       0       0       0
 10501 ;;Total ram usage:        6 bytes
 10502 ;; Hardware stack levels used: 1
 10503 ;; Hardware stack levels required when called: 1
 10504 ;; This function calls:
 10505 ;;		Nothing
 10506 ;; This function is called by:
 10507 ;;		_change_password
 10508 ;; This function uses a non-reentrant model
 10509 ;;
 10510                           
 10511     147A                     _strncmp:	
 10512                           ;psect for function _strncmp
 10513                           
 10514                           
 10515                           ;incstack = 0
 10516                           ; Regs used in _strncmp: [wreg-fsr0h+status,2+status,0+btemp+1]
 10517                           ;strncmp@l stored from wreg
 10518     147A  00F8               	movwf	strncmp@l
 10519     147B                     l4491:
 10520     147B  3001               	movlw	1
 10521     147C  02F4               	subwf	strncmp@n,f
 10522     147D  3000               	movlw	0
 10523     147E  1C03               	skipc
 10524     147F  03F5               	decf	strncmp@n+1,f
 10525     1480  02F5               	subwf	strncmp@n+1,f
 10526     1481  0A74               	incf	strncmp@n,w
 10527     1482  1D03               	skipz
 10528     1483  2C88               	goto	u3751
 10529     1484  0A75               	incf	strncmp@n+1,w
 10530     1485  1D03               	btfss	3,2
 10531     1486  2C88               	goto	u3751
 10532     1487  2C89               	goto	u3750
 10533     1488                     u3751:
 10534     1488  2C9A               	goto	l4501
 10535     1489                     u3750:
 10536     1489                     l4493:
 10537     1489  01F3               	clrf	?_strncmp
 10538     148A  01F4               	clrf	?_strncmp+1
 10539     148B  2CC9               	goto	l1118
 10540     148C                     l4497:
 10541     148C  3001               	movlw	1
 10542     148D  00FF               	movwf	btemp+1
 10543     148E  087F               	movf	btemp+1,w
 10544     148F  07F8               	addwf	strncmp@l,f
 10545     1490  3001               	movlw	1
 10546     1491  00FF               	movwf	btemp+1
 10547     1492  087F               	movf	btemp+1,w
 10548     1493  07F3               	addwf	strncmp@r,f
 10549     1494                     l4499:
 10550     1494  3001               	movlw	1
 10551     1495  02F4               	subwf	strncmp@n,f
 10552     1496  3000               	movlw	0
 10553     1497  1C03               	skipc
 10554     1498  03F5               	decf	strncmp@n+1,f
 10555     1499  02F5               	subwf	strncmp@n+1,f
 10556     149A                     l4501:
 10557     149A  0878               	movf	strncmp@l,w
 10558     149B  0084               	movwf	4
 10559     149C  1383               	bcf	3,7	;select IRP bank0
 10560     149D  0800               	movf	0,w
 10561     149E  1903               	btfsc	3,2
 10562     149F  2CA1               	goto	u3761
 10563     14A0  2CA2               	goto	u3760
 10564     14A1                     u3761:
 10565     14A1  2CBB               	goto	l4509
 10566     14A2                     u3760:
 10567     14A2                     l4503:
 10568     14A2  0873               	movf	strncmp@r,w
 10569     14A3  0084               	movwf	4
 10570     14A4  0800               	movf	0,w
 10571     14A5  1903               	btfsc	3,2
 10572     14A6  2CA8               	goto	u3771
 10573     14A7  2CA9               	goto	u3770
 10574     14A8                     u3771:
 10575     14A8  2CBB               	goto	l4509
 10576     14A9                     u3770:
 10577     14A9                     l4505:
 10578     14A9  0874               	movf	strncmp@n,w
 10579     14AA  0475               	iorwf	strncmp@n+1,w
 10580     14AB  1903               	btfsc	3,2
 10581     14AC  2CAE               	goto	u3781
 10582     14AD  2CAF               	goto	u3780
 10583     14AE                     u3781:
 10584     14AE  2CBB               	goto	l4509
 10585     14AF                     u3780:
 10586     14AF                     l4507:
 10587     14AF  0873               	movf	strncmp@r,w
 10588     14B0  0084               	movwf	4
 10589     14B1  0800               	movf	0,w
 10590     14B2  00F6               	movwf	??_strncmp
 10591     14B3  0878               	movf	strncmp@l,w
 10592     14B4  0084               	movwf	4
 10593     14B5  0800               	movf	0,w
 10594     14B6  0676               	xorwf	??_strncmp,w
 10595     14B7  1903               	skipnz
 10596     14B8  2CBA               	goto	u3791
 10597     14B9  2CBB               	goto	u3790
 10598     14BA                     u3791:
 10599     14BA  2C8C               	goto	l4497
 10600     14BB                     u3790:
 10601     14BB                     l4509:
 10602     14BB  0873               	movf	strncmp@r,w
 10603     14BC  0084               	movwf	4
 10604     14BD  0800               	movf	0,w
 10605     14BE  00F6               	movwf	??_strncmp
 10606     14BF  0878               	movf	strncmp@l,w
 10607     14C0  0084               	movwf	4
 10608     14C1  0800               	movf	0,w
 10609     14C2  00F7               	movwf	??_strncmp+1
 10610     14C3  0876               	movf	??_strncmp,w
 10611     14C4  0277               	subwf	??_strncmp+1,w
 10612     14C5  00F3               	movwf	?_strncmp
 10613     14C6  01F4               	clrf	?_strncmp+1
 10614     14C7  1C03               	skipc
 10615     14C8  03F4               	decf	?_strncmp+1,f
 10616     14C9                     l1118:
 10617     14C9  0008               	return
 10618     14CA                     __end_of_strncmp:
 10619                           
 10620                           	psect	text43
 10621     109B                     __ptext43:	
 10622 ;; *************** function _ext_eeprom_24C02_str_write *****************
 10623 ;; Defined at:
 10624 ;;		line 52 in file "EEprom.c"
 10625 ;; Parameters:    Size  Location     Type
 10626 ;;  addr            1    wreg     unsigned char 
 10627 ;;  data            1    6[COMMON] PTR unsigned char 
 10628 ;;		 -> change_password@r_pwd(9), log(11), 
 10629 ;; Auto vars:     Size  Location     Type
 10630 ;;  addr            1    7[COMMON] unsigned char 
 10631 ;; Return value:  Size  Location     Type
 10632 ;;                  1    wreg      void 
 10633 ;; Registers used:
 10634 ;;		wreg, fsr0l, fsr0h, status,2, status,0, btemp+1, pclath, cstack
 10635 ;; Tracked objects:
 10636 ;;		On entry : 0/0
 10637 ;;		On exit  : 0/0
 10638 ;;		Unchanged: 0/0
 10639 ;; Data sizes:     COMMON   BANK0   BANK1   BANK3   BANK2
 10640 ;;      Params:         1       0       0       0       0
 10641 ;;      Locals:         1       0       0       0       0
 10642 ;;      Temps:          0       0       0       0       0
 10643 ;;      Totals:         2       0       0       0       0
 10644 ;;Total ram usage:        2 bytes
 10645 ;; Hardware stack levels used: 1
 10646 ;; Hardware stack levels required when called: 4
 10647 ;; This function calls:
 10648 ;;		_ext_eeprom_24C02_byte_write
 10649 ;; This function is called by:
 10650 ;;		_log_event
 10651 ;;		_change_password
 10652 ;; This function uses a non-reentrant model
 10653 ;;
 10654                           
 10655     109B                     _ext_eeprom_24C02_str_write:	
 10656                           ;psect for function _ext_eeprom_24C02_str_write
 10657                           
 10658                           
 10659                           ;incstack = 0
 10660                           ; Regs used in _ext_eeprom_24C02_str_write: [wreg-fsr0h+status,2+status,0+btemp+1+pclath
      +                          +cstack]
 10661                           ;ext_eeprom_24C02_str_write@addr stored from wreg
 10662     109B  00F7               	movwf	ext_eeprom_24C02_str_write@addr
 10663     109C                     l4321:
 10664                           
 10665                           ;EEprom.c: 52:  }
 10666     109C  28AF               	goto	l4329
 10667     109D                     l4323:
 10668     109D  0876               	movf	ext_eeprom_24C02_str_write@data,w
 10669     109E  0084               	movwf	4
 10670     109F  0800               	movf	0,w
 10671     10A0  00F4               	movwf	ext_eeprom_24C02_byte_write@data
 10672     10A1  0877               	movf	ext_eeprom_24C02_str_write@addr,w
 10673     10A2  160A  118A  20B8  160A  118A  	fcall	_ext_eeprom_24C02_byte_write
 10674     10A7                     l4325:
 10675     10A7  3001               	movlw	1
 10676     10A8  00FF               	movwf	btemp+1
 10677     10A9  087F               	movf	btemp+1,w
 10678     10AA  07F6               	addwf	ext_eeprom_24C02_str_write@data,f
 10679     10AB                     l4327:
 10680     10AB  3001               	movlw	1
 10681     10AC  00FF               	movwf	btemp+1
 10682     10AD  087F               	movf	btemp+1,w
 10683     10AE  07F7               	addwf	ext_eeprom_24C02_str_write@addr,f
 10684     10AF                     l4329:
 10685     10AF  0876               	movf	ext_eeprom_24C02_str_write@data,w
 10686     10B0  0084               	movwf	4
 10687     10B1  1383               	bcf	3,7	;select IRP bank0
 10688     10B2  0800               	movf	0,w
 10689     10B3  1D03               	btfss	3,2
 10690     10B4  28B6               	goto	u3521
 10691     10B5  28B7               	goto	u3520
 10692     10B6                     u3521:
 10693     10B6  289D               	goto	l4323
 10694     10B7                     u3520:
 10695     10B7                     l469:
 10696     10B7  0008               	return
 10697     10B8                     __end_of_ext_eeprom_24C02_str_write:
 10698                           
 10699                           	psect	text44
 10700     10B8                     __ptext44:	
 10701 ;; *************** function _ext_eeprom_24C02_byte_write *****************
 10702 ;; Defined at:
 10703 ;;		line 35 in file "EEprom.c"
 10704 ;; Parameters:    Size  Location     Type
 10705 ;;  addr            1    wreg     unsigned char 
 10706 ;;  data            1    4[COMMON] unsigned char 
 10707 ;; Auto vars:     Size  Location     Type
 10708 ;;  addr            1    5[COMMON] unsigned char 
 10709 ;; Return value:  Size  Location     Type
 10710 ;;                  1    wreg      void 
 10711 ;; Registers used:
 10712 ;;		wreg, status,2, status,0, pclath, cstack
 10713 ;; Tracked objects:
 10714 ;;		On entry : 0/0
 10715 ;;		On exit  : 0/0
 10716 ;;		Unchanged: 0/0
 10717 ;; Data sizes:     COMMON   BANK0   BANK1   BANK3   BANK2
 10718 ;;      Params:         1       0       0       0       0
 10719 ;;      Locals:         1       0       0       0       0
 10720 ;;      Temps:          0       0       0       0       0
 10721 ;;      Totals:         2       0       0       0       0
 10722 ;;Total ram usage:        2 bytes
 10723 ;; Hardware stack levels used: 1
 10724 ;; Hardware stack levels required when called: 3
 10725 ;; This function calls:
 10726 ;;		_i2c_start
 10727 ;;		_i2c_stop
 10728 ;;		_i2c_write
 10729 ;; This function is called by:
 10730 ;;		_main
 10731 ;;		_ext_eeprom_24C02_str_write
 10732 ;; This function uses a non-reentrant model
 10733 ;;
 10734                           
 10735     10B8                     _ext_eeprom_24C02_byte_write:	
 10736                           ;psect for function _ext_eeprom_24C02_byte_write
 10737                           
 10738                           
 10739                           ;incstack = 0
 10740                           ; Regs used in _ext_eeprom_24C02_byte_write: [wreg+status,2+status,0+pclath+cstack]
 10741                           ;ext_eeprom_24C02_byte_write@addr stored from wreg
 10742     10B8  00F5               	movwf	ext_eeprom_24C02_byte_write@addr
 10743     10B9                     l4247:
 10744                           
 10745                           ;EEprom.c: 35: ;EEprom.c: 36:     i2c_write(addr);;EEprom.c: 38: 
 10746     10B9  160A  158A  27B7  160A  118A  	fcall	_i2c_start
 10747                           
 10748                           ;EEprom.c: 41: 
 10749     10BE  30A0               	movlw	160
 10750     10BF  160A  158A  27D2  160A  118A  	fcall	_i2c_write
 10751                           
 10752                           ;EEprom.c: 44: void ext_eeprom_24C02_str_write(unsigned char addr , char *data)
 10753     10C4  0875               	movf	ext_eeprom_24C02_byte_write@addr,w
 10754     10C5  160A  158A  27D2  160A  118A  	fcall	_i2c_write
 10755                           
 10756                           ;EEprom.c: 47:     {
 10757     10CA  0874               	movf	ext_eeprom_24C02_byte_write@data,w
 10758     10CB  160A  158A  27D2  160A  118A  	fcall	_i2c_write
 10759                           
 10760                           ;EEprom.c: 50:         addr++;
 10761     10D0  160A  158A  27C0  160A  118A  	fcall	_i2c_stop
 10762     10D5                     l463:
 10763     10D5  0008               	return
 10764     10D6                     __end_of_ext_eeprom_24C02_byte_write:
 10765                           
 10766                           	psect	text45
 10767     1FD2                     __ptext45:	
 10768 ;; *************** function _i2c_write *****************
 10769 ;; Defined at:
 10770 ;;		line 68 in file "i2c.c"
 10771 ;; Parameters:    Size  Location     Type
 10772 ;;  data            1    wreg     unsigned char 
 10773 ;; Auto vars:     Size  Location     Type
 10774 ;;  data            1    3[COMMON] unsigned char 
 10775 ;; Return value:  Size  Location     Type
 10776 ;;                  2  181[None  ] int 
 10777 ;; Registers used:
 10778 ;;		wreg, status,2, status,0, pclath, cstack
 10779 ;; Tracked objects:
 10780 ;;		On entry : 0/0
 10781 ;;		On exit  : 0/0
 10782 ;;		Unchanged: 0/0
 10783 ;; Data sizes:     COMMON   BANK0   BANK1   BANK3   BANK2
 10784 ;;      Params:         0       0       0       0       0
 10785 ;;      Locals:         1       0       0       0       0
 10786 ;;      Temps:          0       0       0       0       0
 10787 ;;      Totals:         1       0       0       0       0
 10788 ;;Total ram usage:        1 bytes
 10789 ;; Hardware stack levels used: 1
 10790 ;; Hardware stack levels required when called: 2
 10791 ;; This function calls:
 10792 ;;		_i2c_wait_for_idle
 10793 ;; This function is called by:
 10794 ;;		_read_ds1307
 10795 ;;		_write_ds1307
 10796 ;;		_ext_eeprom_24C02_read
 10797 ;;		_ext_eeprom_24C02_byte_write
 10798 ;; This function uses a non-reentrant model
 10799 ;;
 10800                           
 10801     1FD2                     _i2c_write:	
 10802                           ;psect for function _i2c_write
 10803                           
 10804                           
 10805                           ;incstack = 0
 10806                           ; Regs used in _i2c_write: [wreg+status,2+status,0+pclath+cstack]
 10807                           ;i2c_write@data stored from wreg
 10808     1FD2  00F3               	movwf	i2c_write@data
 10809     1FD3                     l4217:
 10810                           
 10811                           ;i2c.c: 68: int i2c_write(unsigned char data);i2c.c: 69: {;i2c.c: 70:     i2c_wait_for_i
      +                          dle();
 10812     1FD3  160A  158A  27F3  160A  158A  	fcall	_i2c_wait_for_idle
 10813     1FD8                     l4219:
 10814                           
 10815                           ;i2c.c: 71:     SSPBUF = data;
 10816     1FD8  0873               	movf	i2c_write@data,w
 10817     1FD9  1283               	bcf	3,5	;RP0=0, select bank0
 10818     1FDA  1303               	bcf	3,6	;RP1=0, select bank0
 10819     1FDB  0093               	movwf	19	;volatile
 10820     1FDC                     l4221:
 10821     1FDC                     l248:	
 10822                           ;i2c.c: 73:     return !ACKSTAT;;	Return value of _i2c_write is never used
 10823                           
 10824     1FDC  0008               	return
 10825     1FDD                     __end_of_i2c_write:
 10826                           
 10827                           	psect	text46
 10828     1FC0                     __ptext46:	
 10829 ;; *************** function _i2c_stop *****************
 10830 ;; Defined at:
 10831 ;;		line 38 in file "i2c.c"
 10832 ;; Parameters:    Size  Location     Type
 10833 ;;		None
 10834 ;; Auto vars:     Size  Location     Type
 10835 ;;		None
 10836 ;; Return value:  Size  Location     Type
 10837 ;;                  1    wreg      void 
 10838 ;; Registers used:
 10839 ;;		wreg, status,2, status,0, pclath, cstack
 10840 ;; Tracked objects:
 10841 ;;		On entry : 0/0
 10842 ;;		On exit  : 0/0
 10843 ;;		Unchanged: 0/0
 10844 ;; Data sizes:     COMMON   BANK0   BANK1   BANK3   BANK2
 10845 ;;      Params:         0       0       0       0       0
 10846 ;;      Locals:         0       0       0       0       0
 10847 ;;      Temps:          0       0       0       0       0
 10848 ;;      Totals:         0       0       0       0       0
 10849 ;;Total ram usage:        0 bytes
 10850 ;; Hardware stack levels used: 1
 10851 ;; Hardware stack levels required when called: 2
 10852 ;; This function calls:
 10853 ;;		_i2c_wait_for_idle
 10854 ;; This function is called by:
 10855 ;;		_read_ds1307
 10856 ;;		_write_ds1307
 10857 ;;		_ext_eeprom_24C02_read
 10858 ;;		_ext_eeprom_24C02_byte_write
 10859 ;; This function uses a non-reentrant model
 10860 ;;
 10861                           
 10862     1FC0                     _i2c_stop:	
 10863                           ;psect for function _i2c_stop
 10864                           
 10865     1FC0                     l4243:	
 10866                           ;incstack = 0
 10867                           ; Regs used in _i2c_stop: [wreg+status,2+status,0+pclath+cstack]
 10868                           
 10869                           
 10870                           ;i2c.c: 40:     i2c_wait_for_idle();
 10871     1FC0  160A  158A  27F3  160A  158A  	fcall	_i2c_wait_for_idle
 10872     1FC5                     l4245:
 10873                           
 10874                           ;i2c.c: 41:     PEN = 1;
 10875     1FC5  1683               	bsf	3,5	;RP0=1, select bank1
 10876     1FC6  1303               	bcf	3,6	;RP1=0, select bank1
 10877     1FC7  1511               	bsf	17,2	;volatile
 10878     1FC8                     l240:
 10879     1FC8  0008               	return
 10880     1FC9                     __end_of_i2c_stop:
 10881                           
 10882                           	psect	text47
 10883     1FB7                     __ptext47:	
 10884 ;; *************** function _i2c_start *****************
 10885 ;; Defined at:
 10886 ;;		line 26 in file "i2c.c"
 10887 ;; Parameters:    Size  Location     Type
 10888 ;;		None
 10889 ;; Auto vars:     Size  Location     Type
 10890 ;;		None
 10891 ;; Return value:  Size  Location     Type
 10892 ;;                  1    wreg      void 
 10893 ;; Registers used:
 10894 ;;		wreg, status,2, status,0, pclath, cstack
 10895 ;; Tracked objects:
 10896 ;;		On entry : 0/0
 10897 ;;		On exit  : 0/0
 10898 ;;		Unchanged: 0/0
 10899 ;; Data sizes:     COMMON   BANK0   BANK1   BANK3   BANK2
 10900 ;;      Params:         0       0       0       0       0
 10901 ;;      Locals:         0       0       0       0       0
 10902 ;;      Temps:          0       0       0       0       0
 10903 ;;      Totals:         0       0       0       0       0
 10904 ;;Total ram usage:        0 bytes
 10905 ;; Hardware stack levels used: 1
 10906 ;; Hardware stack levels required when called: 2
 10907 ;; This function calls:
 10908 ;;		_i2c_wait_for_idle
 10909 ;; This function is called by:
 10910 ;;		_read_ds1307
 10911 ;;		_write_ds1307
 10912 ;;		_ext_eeprom_24C02_read
 10913 ;;		_ext_eeprom_24C02_byte_write
 10914 ;; This function uses a non-reentrant model
 10915 ;;
 10916                           
 10917     1FB7                     _i2c_start:	
 10918                           ;psect for function _i2c_start
 10919                           
 10920     1FB7                     l4213:	
 10921                           ;incstack = 0
 10922                           ; Regs used in _i2c_start: [wreg+status,2+status,0+pclath+cstack]
 10923                           
 10924                           
 10925                           ;i2c.c: 28:     i2c_wait_for_idle();
 10926     1FB7  160A  158A  27F3  160A  158A  	fcall	_i2c_wait_for_idle
 10927     1FBC                     l4215:
 10928                           
 10929                           ;i2c.c: 29:     SEN = 1;
 10930     1FBC  1683               	bsf	3,5	;RP0=1, select bank1
 10931     1FBD  1303               	bcf	3,6	;RP1=0, select bank1
 10932     1FBE  1411               	bsf	17,0	;volatile
 10933     1FBF                     l234:
 10934     1FBF  0008               	return
 10935     1FC0                     __end_of_i2c_start:
 10936                           
 10937                           	psect	text48
 10938     1FF3                     __ptext48:	
 10939 ;; *************** function _i2c_wait_for_idle *****************
 10940 ;; Defined at:
 10941 ;;		line 20 in file "i2c.c"
 10942 ;; Parameters:    Size  Location     Type
 10943 ;;		None
 10944 ;; Auto vars:     Size  Location     Type
 10945 ;;		None
 10946 ;; Return value:  Size  Location     Type
 10947 ;;                  1    wreg      void 
 10948 ;; Registers used:
 10949 ;;		wreg, status,2
 10950 ;; Tracked objects:
 10951 ;;		On entry : 0/0
 10952 ;;		On exit  : 0/0
 10953 ;;		Unchanged: 0/0
 10954 ;; Data sizes:     COMMON   BANK0   BANK1   BANK3   BANK2
 10955 ;;      Params:         0       0       0       0       0
 10956 ;;      Locals:         0       0       0       0       0
 10957 ;;      Temps:          0       0       0       0       0
 10958 ;;      Totals:         0       0       0       0       0
 10959 ;;Total ram usage:        0 bytes
 10960 ;; Hardware stack levels used: 1
 10961 ;; Hardware stack levels required when called: 1
 10962 ;; This function calls:
 10963 ;;		Nothing
 10964 ;; This function is called by:
 10965 ;;		_i2c_start
 10966 ;;		_i2c_rep_start
 10967 ;;		_i2c_stop
 10968 ;;		_i2c_read
 10969 ;;		_i2c_write
 10970 ;; This function uses a non-reentrant model
 10971 ;;
 10972                           
 10973     1FF3                     _i2c_wait_for_idle:	
 10974                           ;psect for function _i2c_wait_for_idle
 10975                           
 10976     1FF3                     l4209:	
 10977                           ;incstack = 0
 10978                           ; Regs used in _i2c_wait_for_idle: [wreg+status,2]
 10979                           
 10980     1FF3                     l228:	
 10981                           ;i2c.c: 23:     while (R_nW || (SSPCON2 & 0x1F));
 10982                           
 10983     1FF3  1683               	bsf	3,5	;RP0=1, select bank1
 10984     1FF4  1303               	bcf	3,6	;RP1=0, select bank1
 10985     1FF5  1914               	btfsc	20,2	;volatile
 10986     1FF6  2FF8               	goto	u3431
 10987     1FF7  2FF9               	goto	u3430
 10988     1FF8                     u3431:
 10989     1FF8  2FF3               	goto	l228
 10990     1FF9                     u3430:
 10991     1FF9                     l4211:
 10992     1FF9  0811               	movf	17,w	;volatile
 10993     1FFA  391F               	andlw	31
 10994     1FFB  1D03               	btfss	3,2
 10995     1FFC  2FFE               	goto	u3441
 10996     1FFD  2FFF               	goto	u3440
 10997     1FFE                     u3441:
 10998     1FFE  2FF3               	goto	l228
 10999     1FFF                     u3440:
 11000     1FFF                     l231:
 11001     1FFF  0008               	return
 11002     2000                     __end_of_i2c_wait_for_idle:
 11003                           
 11004                           	psect	text49
 11005     1058                     __ptext49:	
 11006 ;; *************** function _clcd_putch *****************
 11007 ;; Defined at:
 11008 ;;		line 60 in file "clcd.c"
 11009 ;; Parameters:    Size  Location     Type
 11010 ;;  data            1    wreg     const unsigned char 
 11011 ;;  addr            1    7[BANK0 ] unsigned char 
 11012 ;; Auto vars:     Size  Location     Type
 11013 ;;  data            1    8[BANK0 ] const unsigned char 
 11014 ;; Return value:  Size  Location     Type
 11015 ;;                  1    wreg      void 
 11016 ;; Registers used:
 11017 ;;		wreg, status,2, status,0, pclath, cstack
 11018 ;; Tracked objects:
 11019 ;;		On entry : 0/0
 11020 ;;		On exit  : 0/0
 11021 ;;		Unchanged: 0/0
 11022 ;; Data sizes:     COMMON   BANK0   BANK1   BANK3   BANK2
 11023 ;;      Params:         0       1       0       0       0
 11024 ;;      Locals:         0       1       0       0       0
 11025 ;;      Temps:          0       0       0       0       0
 11026 ;;      Totals:         0       2       0       0       0
 11027 ;;Total ram usage:        2 bytes
 11028 ;; Hardware stack levels used: 1
 11029 ;; Hardware stack levels required when called: 2
 11030 ;; This function calls:
 11031 ;;		_clcd_write
 11032 ;; This function is called by:
 11033 ;;		_main
 11034 ;;		_display_time
 11035 ;;		_display_dash_board
 11036 ;;		_login
 11037 ;;		_login_menu
 11038 ;;		_view_log
 11039 ;;		_change_time
 11040 ;;		_change_password
 11041 ;; This function uses a non-reentrant model
 11042 ;;
 11043                           
 11044     1058                     _clcd_putch:	
 11045                           ;psect for function _clcd_putch
 11046                           
 11047                           
 11048                           ;incstack = 0
 11049                           ; Regs used in _clcd_putch: [wreg+status,2+status,0+pclath+cstack]
 11050                           ;clcd_putch@data stored from wreg
 11051     1058  1283               	bcf	3,5	;RP0=0, select bank0
 11052     1059  1303               	bcf	3,6	;RP1=0, select bank0
 11053     105A  00A8               	movwf	clcd_putch@data
 11054     105B                     l4275:
 11055                           
 11056                           ;clcd.c: 60: {;clcd.c: 61:     clcd_write(addr, 0);;clcd.c: 62: 
 11057     105B  01F3               	clrf	clcd_write@mode
 11058     105C  0827               	movf	clcd_putch@addr,w
 11059     105D  160A  118A  22C6  160A  118A  	fcall	_clcd_write
 11060                           
 11061                           ;clcd.c: 63:     while (*str != '\0')
 11062     1062  01F3               	clrf	clcd_write@mode
 11063     1063  0AF3               	incf	clcd_write@mode,f
 11064     1064  1283               	bcf	3,5	;RP0=0, select bank0
 11065     1065  1303               	bcf	3,6	;RP1=0, select bank0
 11066     1066  0828               	movf	clcd_putch@data,w
 11067     1067  160A  118A  22C6  160A  118A  	fcall	_clcd_write
 11068     106C                     l167:
 11069     106C  0008               	return
 11070     106D                     __end_of_clcd_putch:
 11071                           
 11072                           	psect	text50
 11073     125F                     __ptext50:	
 11074 ;; *************** function _clcd_print *****************
 11075 ;; Defined at:
 11076 ;;		line 66 in file "clcd.c"
 11077 ;; Parameters:    Size  Location     Type
 11078 ;;  str             2    0[BANK0 ] PTR const unsigned char 
 11079 ;;		 -> STR_46(7), STR_45(17), STR_44(14), STR_43(17), 
 11080 ;;		 -> STR_42(18), STR_41(18), STR_40(21), STR_39(18), 
 11081 ;;		 -> STR_37(3), STR_36(3), STR_35(3), STR_34(13), 
 11082 ;;		 -> STR_33(13), STR_32(16), STR_29(13), STR_28(13), 
 11083 ;;		 -> STR_27(18), STR_26(18), STR_25(17), STR_24(17), 
 11084 ;;		 -> STR_23(16), STR_22(17), STR_21(17), STR_20(16), 
 11085 ;;		 -> STR_19(17), STR_18(16), STR_17(10), STR_16(14), 
 11086 ;;		 -> STR_15(10), STR_14(9), STR_9(5), STR_8(17), 
 11087 ;;		 -> main@event(3), 
 11088 ;;  addr            1    2[BANK0 ] unsigned char 
 11089 ;; Auto vars:     Size  Location     Type
 11090 ;;		None
 11091 ;; Return value:  Size  Location     Type
 11092 ;;                  1    wreg      void 
 11093 ;; Registers used:
 11094 ;;		wreg, fsr0l, fsr0h, status,2, status,0, btemp+1, pclath, cstack
 11095 ;; Tracked objects:
 11096 ;;		On entry : 0/0
 11097 ;;		On exit  : 0/0
 11098 ;;		Unchanged: 0/0
 11099 ;; Data sizes:     COMMON   BANK0   BANK1   BANK3   BANK2
 11100 ;;      Params:         0       3       0       0       0
 11101 ;;      Locals:         0       0       0       0       0
 11102 ;;      Temps:          0       0       0       0       0
 11103 ;;      Totals:         0       3       0       0       0
 11104 ;;Total ram usage:        3 bytes
 11105 ;; Hardware stack levels used: 1
 11106 ;; Hardware stack levels required when called: 2
 11107 ;; This function calls:
 11108 ;;		_clcd_write
 11109 ;; This function is called by:
 11110 ;;		_main
 11111 ;;		_display_dash_board
 11112 ;;		_login
 11113 ;;		_login_menu
 11114 ;;		_view_log
 11115 ;;		_clear_log
 11116 ;;		_change_time
 11117 ;;		_change_password
 11118 ;; This function uses a non-reentrant model
 11119 ;;
 11120                           
 11121     125F                     _clcd_print:	
 11122                           ;psect for function _clcd_print
 11123                           
 11124     125F                     l4417:	
 11125                           ;incstack = 0
 11126                           ; Regs used in _clcd_print: [wreg-fsr0h+status,2+status,0+btemp+1+pclath+cstack]
 11127                           
 11128                           
 11129                           ;clcd.c: 66:         str++;;clcd.c: 67:     };clcd.c: 68: }
 11130     125F  01F3               	clrf	clcd_write@mode
 11131     1260  1283               	bcf	3,5	;RP0=0, select bank0
 11132     1261  1303               	bcf	3,6	;RP1=0, select bank0
 11133     1262  0822               	movf	clcd_print@addr,w
 11134     1263  160A  118A  22C6  160A  118A  	fcall	_clcd_write
 11135     1268  2A81               	goto	l4423
 11136     1269                     l4419:
 11137     1269  01F3               	clrf	clcd_write@mode
 11138     126A  0AF3               	incf	clcd_write@mode,f
 11139     126B  0821               	movf	clcd_print@str+1,w
 11140     126C  00FF               	movwf	btemp+1
 11141     126D  0820               	movf	clcd_print@str,w
 11142     126E  0084               	movwf	4
 11143     126F  160A  118A  2000  160A  118A  	fcall	stringtab
 11144     1274  160A  118A  22C6  160A  118A  	fcall	_clcd_write
 11145     1279                     l4421:
 11146     1279  3001               	movlw	1
 11147     127A  1283               	bcf	3,5	;RP0=0, select bank0
 11148     127B  1303               	bcf	3,6	;RP1=0, select bank0
 11149     127C  07A0               	addwf	clcd_print@str,f
 11150     127D  1803               	skipnc
 11151     127E  0AA1               	incf	clcd_print@str+1,f
 11152     127F  3000               	movlw	0
 11153     1280  07A1               	addwf	clcd_print@str+1,f
 11154     1281                     l4423:
 11155     1281  1283               	bcf	3,5	;RP0=0, select bank0
 11156     1282  1303               	bcf	3,6	;RP1=0, select bank0
 11157     1283  0821               	movf	clcd_print@str+1,w
 11158     1284  00FF               	movwf	btemp+1
 11159     1285  0820               	movf	clcd_print@str,w
 11160     1286  0084               	movwf	4
 11161     1287  160A  118A  2000  160A  118A  	fcall	stringtab
 11162     128C  3A00               	xorlw	0
 11163     128D  1D03               	skipz
 11164     128E  2A90               	goto	u3651
 11165     128F  2A91               	goto	u3650
 11166     1290                     u3651:
 11167     1290  2A69               	goto	l4419
 11168     1291                     u3650:
 11169     1291                     l173:
 11170     1291  0008               	return
 11171     1292                     __end_of_clcd_print:
 11172                           
 11173                           	psect	text51
 11174     12C6                     __ptext51:	
 11175 ;; *************** function _clcd_write *****************
 11176 ;; Defined at:
 11177 ;;		line 6 in file "clcd.c"
 11178 ;; Parameters:    Size  Location     Type
 11179 ;;  byte            1    wreg     unsigned char 
 11180 ;;  mode            1    3[COMMON] unsigned char 
 11181 ;; Auto vars:     Size  Location     Type
 11182 ;;  byte            1    6[COMMON] unsigned char 
 11183 ;; Return value:  Size  Location     Type
 11184 ;;                  1    wreg      void 
 11185 ;; Registers used:
 11186 ;;		wreg, status,2, status,0
 11187 ;; Tracked objects:
 11188 ;;		On entry : 0/0
 11189 ;;		On exit  : 0/0
 11190 ;;		Unchanged: 0/0
 11191 ;; Data sizes:     COMMON   BANK0   BANK1   BANK3   BANK2
 11192 ;;      Params:         1       0       0       0       0
 11193 ;;      Locals:         1       0       0       0       0
 11194 ;;      Temps:          2       0       0       0       0
 11195 ;;      Totals:         4       0       0       0       0
 11196 ;;Total ram usage:        4 bytes
 11197 ;; Hardware stack levels used: 1
 11198 ;; Hardware stack levels required when called: 1
 11199 ;; This function calls:
 11200 ;;		Nothing
 11201 ;; This function is called by:
 11202 ;;		_main
 11203 ;;		_init_display_controller
 11204 ;;		_clcd_putch
 11205 ;;		_clcd_print
 11206 ;;		_login
 11207 ;;		_login_menu
 11208 ;;		_view_log
 11209 ;;		_change_time
 11210 ;;		_change_password
 11211 ;; This function uses a non-reentrant model
 11212 ;;
 11213                           
 11214     12C6                     _clcd_write:	
 11215                           ;psect for function _clcd_write
 11216                           
 11217                           
 11218                           ;incstack = 0
 11219                           ; Regs used in _clcd_write: [wreg+status,2+status,0]
 11220                           ;clcd_write@byte stored from wreg
 11221     12C6  00F6               	movwf	clcd_write@byte
 11222     12C7                     l4249:
 11223                           
 11224                           ;clcd.c: 6:     RE1 = 0;;clcd.c: 7: ;clcd.c: 8:     PORTD = (byte & 0x0F) << 4;
 11225     12C7  1873               	btfsc	clcd_write@mode,0
 11226     12C8  2ACA               	goto	u3461
 11227     12C9  2ACE               	goto	u3460
 11228     12CA                     u3461:
 11229     12CA  1283               	bcf	3,5	;RP0=0, select bank0
 11230     12CB  1303               	bcf	3,6	;RP1=0, select bank0
 11231     12CC  1509               	bsf	9,2	;volatile
 11232     12CD  2AD1               	goto	u3474
 11233     12CE                     u3460:
 11234     12CE  1283               	bcf	3,5	;RP0=0, select bank0
 11235     12CF  1303               	bcf	3,6	;RP1=0, select bank0
 11236     12D0  1109               	bcf	9,2	;volatile
 11237     12D1                     u3474:
 11238     12D1                     l4251:
 11239                           
 11240                           ;clcd.c: 10:     _delay((unsigned long)((100)*(20000000/4000000.0)));
 11241     12D1  0876               	movf	clcd_write@byte,w
 11242     12D2  39F0               	andlw	240
 11243     12D3  0088               	movwf	8	;volatile
 11244     12D4                     l4253:
 11245                           
 11246                           ;clcd.c: 11:     RE1 = 0;
 11247     12D4  1489               	bsf	9,1	;volatile
 11248     12D5                     l4255:
 11249                           
 11250                           ;clcd.c: 12: 
 11251     12D5  30A6               	movlw	166
 11252     12D6  00F4               	movwf	??_clcd_write
 11253     12D7                     u5307:
 11254     12D7  0BF4               	decfsz	??_clcd_write,f
 11255     12D8  2AD7               	goto	u5307
 11256     12D9  0000               	nop
 11257     12DA                     l4257:
 11258                           
 11259                           ;clcd.c: 13:     _delay((unsigned long)((4100)*(20000000/4000000.0)));
 11260     12DA  1283               	bcf	3,5	;RP0=0, select bank0
 11261     12DB  1303               	bcf	3,6	;RP1=0, select bank0
 11262     12DC  1089               	bcf	9,1	;volatile
 11263     12DD                     l4259:
 11264                           
 11265                           ;clcd.c: 15: 
 11266     12DD  0876               	movf	clcd_write@byte,w
 11267     12DE  390F               	andlw	15
 11268     12DF  00F4               	movwf	??_clcd_write
 11269     12E0  3003               	movlw	3
 11270     12E1                     u3485:
 11271     12E1  1003               	clrc
 11272     12E2  0DF4               	rlf	??_clcd_write,f
 11273     12E3  3EFF               	addlw	-1
 11274     12E4  1D03               	skipz
 11275     12E5  2AE1               	goto	u3485
 11276     12E6  1003               	clrc
 11277     12E7  0D74               	rlf	??_clcd_write,w
 11278     12E8  0088               	movwf	8	;volatile
 11279     12E9                     l4261:
 11280                           
 11281                           ;clcd.c: 16: static void init_display_controller(void)
 11282     12E9  1489               	bsf	9,1	;volatile
 11283     12EA                     l4263:
 11284                           
 11285                           ;clcd.c: 17: {
 11286     12EA  30A6               	movlw	166
 11287     12EB  00F4               	movwf	??_clcd_write
 11288     12EC                     u5317:
 11289     12EC  0BF4               	decfsz	??_clcd_write,f
 11290     12ED  2AEC               	goto	u5317
 11291     12EE  0000               	nop
 11292     12EF                     l4265:
 11293                           
 11294                           ;clcd.c: 18: 
 11295     12EF  1283               	bcf	3,5	;RP0=0, select bank0
 11296     12F0  1303               	bcf	3,6	;RP1=0, select bank0
 11297     12F1  1089               	bcf	9,1	;volatile
 11298     12F2                     l4267:
 11299                           
 11300                           ;clcd.c: 20: 
 11301     12F2  301B               	movlw	27
 11302     12F3  00F5               	movwf	??_clcd_write+1
 11303     12F4  309E               	movlw	158
 11304     12F5  00F4               	movwf	??_clcd_write
 11305     12F6                     u5327:
 11306     12F6  0BF4               	decfsz	??_clcd_write,f
 11307     12F7  2AF6               	goto	u5327
 11308     12F8  0BF5               	decfsz	??_clcd_write+1,f
 11309     12F9  2AF6               	goto	u5327
 11310     12FA  0000               	nop
 11311     12FB                     l158:
 11312     12FB  0008               	return
 11313     12FC                     __end_of_clcd_write:
 11314                           
 11315                           	psect	text52
 11316     142B                     __ptext52:	
 11317 ;; *************** function _isr *****************
 11318 ;; Defined at:
 11319 ;;		line 8 in file "isr.c"
 11320 ;; Parameters:    Size  Location     Type
 11321 ;;		None
 11322 ;; Auto vars:     Size  Location     Type
 11323 ;;		None
 11324 ;; Return value:  Size  Location     Type
 11325 ;;                  1    wreg      void 
 11326 ;; Registers used:
 11327 ;;		wreg, status,2, status,0, btemp+1
 11328 ;; Tracked objects:
 11329 ;;		On entry : 0/0
 11330 ;;		On exit  : 0/0
 11331 ;;		Unchanged: 0/0
 11332 ;; Data sizes:     COMMON   BANK0   BANK1   BANK3   BANK2
 11333 ;;      Params:         0       0       0       0       0
 11334 ;;      Locals:         0       0       0       0       0
 11335 ;;      Temps:          3       0       0       0       0
 11336 ;;      Totals:         3       0       0       0       0
 11337 ;;Total ram usage:        3 bytes
 11338 ;; Hardware stack levels used: 1
 11339 ;; This function calls:
 11340 ;;		Nothing
 11341 ;; This function is called by:
 11342 ;;		Interrupt level 1
 11343 ;; This function uses a non-reentrant model
 11344 ;;
 11345                           
 11346     142B                     _isr:	
 11347                           ;psect for function _isr
 11348                           
 11349     142B                     i1l3993:
 11350                           
 11351                           ;isr.c: 10:     static unsigned int count = 0;;isr.c: 12:     if (TMR2IF == 1)
 11352     142B  1283               	bcf	3,5	;RP0=0, select bank0
 11353     142C  1303               	bcf	3,6	;RP1=0, select bank0
 11354     142D  1C8C               	btfss	12,1	;volatile
 11355     142E  2C30               	goto	u339_21
 11356     142F  2C31               	goto	u339_20
 11357     1430                     u339_21:
 11358     1430  2C71               	goto	i1l529
 11359     1431                     u339_20:
 11360     1431                     i1l3995:
 11361                           
 11362                           ;isr.c: 13:     {;isr.c: 14:         if (++count == 1250)
 11363     1431  3001               	movlw	1
 11364     1432  07CB               	addwf	isr@count,f
 11365     1433  1803               	skipnc
 11366     1434  0ACC               	incf	isr@count+1,f
 11367     1435  3000               	movlw	0
 11368     1436  07CC               	addwf	isr@count+1,f
 11369     1437  30E2               	movlw	226
 11370     1438  064B               	xorwf	isr@count,w
 11371     1439  3004               	movlw	4
 11372     143A  1903               	skipnz
 11373     143B  064C               	xorwf	isr@count+1,w
 11374     143C  1D03               	btfss	3,2
 11375     143D  2C3F               	goto	u340_21
 11376     143E  2C40               	goto	u340_20
 11377     143F                     u340_21:
 11378     143F  2C6E               	goto	i1l4007
 11379     1440                     u340_20:
 11380     1440                     i1l3997:
 11381                           
 11382                           ;isr.c: 15:         {;isr.c: 16:             count = 0;
 11383     1440  01CB               	clrf	isr@count
 11384     1441  01CC               	clrf	isr@count+1
 11385     1442                     i1l3999:
 11386                           
 11387                           ;isr.c: 18:           if(sec > 0)
 11388     1442  0858               	movf	_sec+1,w
 11389     1443  3A80               	xorlw	128
 11390     1444  00FF               	movwf	btemp+1
 11391     1445  3080               	movlw	128
 11392     1446  027F               	subwf	btemp+1,w
 11393     1447  1D03               	skipz
 11394     1448  2C4B               	goto	u341_25
 11395     1449  3001               	movlw	1
 11396     144A  0257               	subwf	_sec,w
 11397     144B                     u341_25:
 11398     144B  1C03               	skipc
 11399     144C  2C4E               	goto	u341_21
 11400     144D  2C4F               	goto	u341_20
 11401     144E                     u341_21:
 11402     144E  2C57               	goto	i1l4003
 11403     144F                     u341_20:
 11404     144F                     i1l4001:
 11405                           
 11406                           ;isr.c: 19:           {;isr.c: 20:               sec--;
 11407     144F  30FF               	movlw	255
 11408     1450  1283               	bcf	3,5	;RP0=0, select bank0
 11409     1451  1303               	bcf	3,6	;RP1=0, select bank0
 11410     1452  07D7               	addwf	_sec,f
 11411     1453  1803               	skipnc
 11412     1454  0AD8               	incf	_sec+1,f
 11413     1455  30FF               	movlw	255
 11414     1456  07D8               	addwf	_sec+1,f
 11415     1457                     i1l4003:
 11416                           
 11417                           ;isr.c: 22:          if(return_time > 0)
 11418     1457  1283               	bcf	3,5	;RP0=0, select bank0
 11419     1458  1303               	bcf	3,6	;RP1=0, select bank0
 11420     1459  0856               	movf	_return_time+1,w
 11421     145A  3A80               	xorlw	128
 11422     145B  00FF               	movwf	btemp+1
 11423     145C  3080               	movlw	128
 11424     145D  027F               	subwf	btemp+1,w
 11425     145E  1D03               	skipz
 11426     145F  2C62               	goto	u342_25
 11427     1460  3001               	movlw	1
 11428     1461  0255               	subwf	_return_time,w
 11429     1462                     u342_25:
 11430     1462  1C03               	skipc
 11431     1463  2C65               	goto	u342_21
 11432     1464  2C66               	goto	u342_20
 11433     1465                     u342_21:
 11434     1465  2C6E               	goto	i1l4007
 11435     1466                     u342_20:
 11436     1466                     i1l4005:
 11437                           
 11438                           ;isr.c: 23:          {;isr.c: 24:              return_time--;
 11439     1466  30FF               	movlw	255
 11440     1467  1283               	bcf	3,5	;RP0=0, select bank0
 11441     1468  1303               	bcf	3,6	;RP1=0, select bank0
 11442     1469  07D5               	addwf	_return_time,f
 11443     146A  1803               	skipnc
 11444     146B  0AD6               	incf	_return_time+1,f
 11445     146C  30FF               	movlw	255
 11446     146D  07D6               	addwf	_return_time+1,f
 11447     146E                     i1l4007:
 11448                           
 11449                           ;isr.c: 28:         TMR2IF = 0;
 11450     146E  1283               	bcf	3,5	;RP0=0, select bank0
 11451     146F  1303               	bcf	3,6	;RP1=0, select bank0
 11452     1470  108C               	bcf	12,1	;volatile
 11453     1471                     i1l529:
 11454     1471  0872               	movf	??_isr+2,w
 11455     1472  00FF               	movwf	btemp+1
 11456     1473  0871               	movf	??_isr+1,w
 11457     1474  008A               	movwf	10
 11458     1475  0E70               	swapf	??_isr,w
 11459     1476  0083               	movwf	3
 11460     1477  0EFE               	swapf	btemp,f
 11461     1478  0E7E               	swapf	btemp,w
 11462     1479  0009               	retfie
 11463     147A                     __end_of_isr:
 11464     007E                     btemp	set	126	;btemp
 11465     007E                     wtemp0	set	126
 11466                           
 11467                           	psect	intentry
 11468     0004                     __pintentry:	
 11469                           ;incstack = 0
 11470                           ; Regs used in _isr: [wreg+status,2+status,0+btemp+1]
 11471                           
 11472     0004                     interrupt_function:
 11473     007E                     saved_w	set	btemp
 11474     0004  00FE               	movwf	btemp
 11475     0005  0E03               	swapf	3,w
 11476     0006  00F0               	movwf	??_isr
 11477     0007  080A               	movf	10,w
 11478     0008  00F1               	movwf	??_isr+1
 11479     0009  087F               	movf	btemp+1,w
 11480     000A  00F2               	movwf	??_isr+2
 11481     000B  160A  118A  2C2B   	ljmp	_isr
 11482                           
 11483                           	psect	idloc
 11484                           
 11485                           ;Config register IDLOC0 @ 0x2000
 11486                           ;	unspecified, using default values
 11487     2000                     	org	8192
 11488     2000  3FFF               	dw	16383
 11489                           
 11490                           ;Config register IDLOC1 @ 0x2001
 11491                           ;	unspecified, using default values
 11492     2001                     	org	8193
 11493     2001  3FFF               	dw	16383
 11494                           
 11495                           ;Config register IDLOC2 @ 0x2002
 11496                           ;	unspecified, using default values
 11497     2002                     	org	8194
 11498     2002  3FFF               	dw	16383
 11499                           
 11500                           ;Config register IDLOC3 @ 0x2003
 11501                           ;	unspecified, using default values
 11502     2003                     	org	8195
 11503     2003  3FFF               	dw	16383
 11504                           
 11505                           	psect	config
 11506                           
 11507                           ;Config register CONFIG @ 0x2007
 11508                           ;	Oscillator Selection bits
 11509                           ;	FOSC = 0x3, unprogrammed default
 11510                           ;	Watchdog Timer Enable bit
 11511                           ;	WDTE = OFF, WDT disabled
 11512                           ;	Power-up Timer Enable bit
 11513                           ;	PWRTE = 0x1, unprogrammed default
 11514                           ;	Brown-out Reset Enable bit
 11515                           ;	BOREN = 0x1, unprogrammed default
 11516                           ;	Low-Voltage (Single-Supply) In-Circuit Serial Programming Enable bit
 11517                           ;	LVP = 0x1, unprogrammed default
 11518                           ;	Data EEPROM Memory Code Protection bit
 11519                           ;	CPD = 0x1, unprogrammed default
 11520                           ;	Flash Program Memory Write Enable bits
 11521                           ;	WRT = 0x3, unprogrammed default
 11522                           ;	In-Circuit Debugger Mode bit
 11523                           ;	DEBUG = 0x1, unprogrammed default
 11524                           ;	Flash Program Memory Code Protection bit
 11525                           ;	CP = 0x1, unprogrammed default
 11526     2007                     	org	8199
 11527     2007  3FFB               	dw	16379

Data Sizes:
    Strings     401
    Constant    0
    Data        33
    BSS         68
    Persistent  0
    Stack       0

Auto Spaces:
    Space          Size  Autos    Used
    COMMON           14      9      11
    BANK0            80     34      72
    BANK1            80     13      74
    BANK3            96      0       0
    BANK2            96      0       0

Pointer List with Targets:

    clcd_print@str	PTR const unsigned char  size(2) Largest target is 21
		 -> main@event(BANK1[3]), STR_14(CODE[9]), STR_15(CODE[10]), STR_16(CODE[14]), 
		 -> STR_17(CODE[10]), STR_18(CODE[16]), STR_19(CODE[17]), STR_20(CODE[16]), 
		 -> STR_21(CODE[17]), STR_22(CODE[17]), STR_23(CODE[16]), STR_24(CODE[17]), 
		 -> STR_25(CODE[17]), STR_26(CODE[18]), STR_27(CODE[18]), STR_28(CODE[13]), 
		 -> STR_29(CODE[13]), STR_32(CODE[16]), STR_33(CODE[13]), STR_34(CODE[13]), 
		 -> STR_35(CODE[3]), STR_36(CODE[3]), STR_37(CODE[3]), STR_39(CODE[18]), 
		 -> STR_40(CODE[21]), STR_41(CODE[18]), STR_42(CODE[18]), STR_43(CODE[17]), 
		 -> STR_44(CODE[14]), STR_45(CODE[17]), STR_46(CODE[7]), STR_8(CODE[17]), 
		 -> STR_9(CODE[5]), 

    display_dash_board@event	PTR unsigned char  size(1) Largest target is 3
		 -> main@event(BANK1[3]), 

    ext_eeprom_24C02_str_write@data	PTR unsigned char  size(1) Largest target is 11
		 -> change_password@r_pwd(BANK1[9]), log(BANK1[11]), 

    gear	PTR unsigned char [6] size(2) Largest target is 3
		 -> STR_1(CODE[3]), STR_2(CODE[3]), STR_3(CODE[3]), STR_4(CODE[3]), 
		 -> STR_5(CODE[3]), STR_6(CODE[3]), 

    get_password@spassword	PTR unsigned char  size(1) Largest target is 5
		 -> login@spassword(BANK0[5]), 

    log_car_event@event	PTR unsigned char  size(2) Largest target is 3
		 -> main@event(BANK1[3]), STR_10(CODE[3]), STR_11(CODE[3]), STR_12(CODE[3]), 
		 -> STR_13(CODE[3]), 

    menu	PTR unsigned char [5] size(2) Largest target is 16
		 -> STR_14(CODE[9]), STR_15(CODE[10]), STR_16(CODE[14]), STR_17(CODE[10]), 
		 -> STR_18(CODE[16]), 

    putsx@s	PTR const unsigned char  size(2) Largest target is 17
		 -> STR_30(CODE[17]), STR_31(CODE[7]), 

    sp__strcpy	PTR unsigned char  size(1) Largest target is 3
		 -> main@event(BANK1[3]), 

    sp__strncpy	PTR unsigned char  size(1) Largest target is 11
		 -> change_password@r_pwd(BANK1[9]), log(BANK1[11]), 

    strcmp@l	PTR const unsigned char  size(1) Largest target is 5
		 -> login@npassword(BANK1[5]), 

    strcmp@r	PTR const unsigned char  size(1) Largest target is 5
		 -> login@spassword(BANK0[5]), 

    strcpy@d	PTR unsigned char  size(1) Largest target is 3
		 -> main@event(BANK1[3]), 

    strcpy@dest	PTR unsigned char  size(1) Largest target is 3
		 -> main@event(BANK1[3]), 

    strcpy@src	PTR const unsigned char  size(2) Largest target is 3
		 -> STR_1(CODE[3]), STR_2(CODE[3]), STR_3(CODE[3]), STR_4(CODE[3]), 
		 -> STR_5(CODE[3]), STR_6(CODE[3]), STR_7(CODE[3]), 

    strncmp@l	PTR const unsigned char  size(1) Largest target is 9
		 -> change_password@r_pwd(BANK1[9]), 

    strncmp@r	PTR const unsigned char  size(1) Largest target is 9
		 -> change_password@r_pwd(BANK1[9]), 

    strncpy@cp	PTR unsigned char  size(1) Largest target is 11
		 -> change_password@r_pwd(BANK1[9]), log(BANK1[11]), 

    strncpy@d	PTR unsigned char  size(1) Largest target is 11
		 -> change_password@r_pwd(BANK1[9]), log(BANK1[11]), 

    strncpy@s	PTR const unsigned char  size(2) Largest target is 7
		 -> main@event(BANK1[3]), STR_10(CODE[3]), STR_11(CODE[3]), STR_12(CODE[3]), 
		 -> STR_13(CODE[3]), STR_38(CODE[5]), time(BANK1[7]), 


Critical Paths under _main in COMMON

    _main->_strcpy
    _view_log->___awmod
    _login->___awmod
    _get_password->_ext_eeprom_24C02_read
    _log_car_event->___awmod
    _log_car_event->_log_event
    _log_car_event->_strncpy
    _log_event->_ext_eeprom_24C02_str_write
    _init_uart->___lldiv
    _init_i2c->___lldiv
    _init_ds1307->_read_ds1307
    _init_clcd->_init_display_controller
    _init_display_controller->_clcd_write
    _download_log->___awmod
    _putsx->_putchars
    _ext_eeprom_24C02_read->_i2c_read
    _display_dash_board->___awmod
    _change_time->___awmod
    _change_time->___wmul
    _write_ds1307->_i2c_write
    _get_time->_read_ds1307
    _read_ds1307->_i2c_read
    ___lwdiv->_read_adc
    _change_password->_strncmp
    _change_password->_strncpy
    _ext_eeprom_24C02_str_write->_ext_eeprom_24C02_byte_write
    _ext_eeprom_24C02_byte_write->_i2c_write
    _clcd_putch->___awmod
    _clcd_print->_clcd_write

Critical Paths under _isr in COMMON

    None.

Critical Paths under _main in BANK0

    _main->_view_log
    _view_log->_clcd_putch
    _login_menu->_clcd_putch
    _login->_clcd_putch
    _log_car_event->___awdiv
    _init_config->_init_i2c
    _init_config->_init_uart
    _init_uart->___lldiv
    _init_i2c->___lldiv
    _display_dash_board->_clcd_putch
    _display_time->_clcd_putch
    _clear_log->_clcd_print
    _change_time->_clcd_putch
    _change_password->_clcd_putch
    _clcd_putch->___lwdiv

Critical Paths under _isr in BANK0

    None.

Critical Paths under _main in BANK1

    None.

Critical Paths under _isr in BANK1

    None.

Critical Paths under _main in BANK3

    None.

Critical Paths under _isr in BANK3

    None.

Critical Paths under _main in BANK2

    None.

Critical Paths under _isr in BANK2

    None.

Call Graph Tables:

 ---------------------------------------------------------------------------------
 (Depth) Function   	        Calls       Base Space   Used Autos Params    Refs
 ---------------------------------------------------------------------------------
 (0) _main                                                16    16      0  201354
                                             32 BANK0      2     2      0
                                              0 BANK1     13    13      0
                            ___lwdiv
                    _change_password
                        _change_time
                         _clcd_print
                         _clcd_putch
                         _clcd_write
                          _clear_log
                 _display_dash_board
                       _download_log
        _ext_eeprom_24C02_byte_write
                        _init_config
                      _log_car_event
                              _login
                         _login_menu
                           _read_adc
                _read_digital_keypad
                             _strcpy
                           _view_log
 ---------------------------------------------------------------------------------
 (1) _view_log                                            23    22      1   24392
                                              9 BANK0     23    22      1
                            ___awmod
                             ___bmul
                         _clcd_print
                         _clcd_putch
                         _clcd_write
              _ext_eeprom_24C02_read
 ---------------------------------------------------------------------------------
 (2) _strcpy                                               6     4      2     481
                                              3 COMMON     6     4      2
 ---------------------------------------------------------------------------------
 (1) _read_digital_keypad                                  1     1      0     158
                                              3 COMMON     1     1      0
 ---------------------------------------------------------------------------------
 (1) _read_adc                                             4     2      2      34
                                              3 COMMON     4     2      2
 ---------------------------------------------------------------------------------
 (1) _login_menu                                           4     3      1   21410
                                              9 BANK0      4     3      1
                         _clcd_print
                         _clcd_putch
                         _clcd_write
 ---------------------------------------------------------------------------------
 (1) _login                                                9     8      1   24646
                                              9 BANK0      9     8      1
                            ___awdiv
                            ___awmod
                         _clcd_print
                         _clcd_putch
                         _clcd_write
                       _get_password
                             _strcmp
 ---------------------------------------------------------------------------------
 (2) _strcmp                                               5     3      2     287
                                              3 COMMON     5     3      2
 ---------------------------------------------------------------------------------
 (2) _get_password                                         4     4      0     358
                                              7 COMMON     1     1      0
                                              0 BANK0      3     3      0
              _ext_eeprom_24C02_read
 ---------------------------------------------------------------------------------
 (1) _log_car_event                                        5     2      3    6410
                                              4 BANK0      5     2      3
                            ___awdiv
                            ___awmod
                           _get_time
                          _log_event
                            _strncpy
 ---------------------------------------------------------------------------------
 (2) _log_event                                            1     1      0    1352
                                              8 COMMON     1     1      0
                             ___bmul
         _ext_eeprom_24C02_str_write
 ---------------------------------------------------------------------------------
 (1) _init_config                                          0     0      0    5999
                           _init_adc
                          _init_clcd
                _init_digital_keypad
                        _init_ds1307
                           _init_i2c
                        _init_timer2
                          _init_uart
 ---------------------------------------------------------------------------------
 (2) _init_uart                                            8     4      4     722
                                              8 BANK0      8     4      4
                            ___lldiv
 ---------------------------------------------------------------------------------
 (2) _init_timer2                                          0     0      0       0
 ---------------------------------------------------------------------------------
 (2) _init_i2c                                             8     4      4     722
                                              8 BANK0      8     4      4
                            ___lldiv
 ---------------------------------------------------------------------------------
 (3) ___lldiv                                             14     6      8     601
                                              3 COMMON     6     6      0
                                              0 BANK0      8     0      8
 ---------------------------------------------------------------------------------
 (2) _init_ds1307                                          1     1      0     682
                                              7 COMMON     1     1      0
                        _read_ds1307
                       _write_ds1307
 ---------------------------------------------------------------------------------
 (2) _init_digital_keypad                                  0     0      0       0
 ---------------------------------------------------------------------------------
 (2) _init_clcd                                            0     0      0    3873
            _init_display_controller
 ---------------------------------------------------------------------------------
 (3) _init_display_controller                              2     2      0    3873
                                              7 COMMON     2     2      0
                         _clcd_write
 ---------------------------------------------------------------------------------
 (2) _init_adc                                             0     0      0       0
 ---------------------------------------------------------------------------------
 (1) _download_log                                        19    19      0    3323
                                              0 BANK0     19    19      0
                            ___awmod
                             ___bmul
              _ext_eeprom_24C02_read
                           _putchars
                              _putsx
 ---------------------------------------------------------------------------------
 (2) _putsx                                                2     0      2     276
                                              4 COMMON     2     0      2
                           _putchars
 ---------------------------------------------------------------------------------
 (3) _putchars                                             1     1      0      31
                                              3 COMMON     1     1      0
 ---------------------------------------------------------------------------------
 (2) _ext_eeprom_24C02_read                                2     2      0     161
                                              5 COMMON     2     2      0
                           _i2c_read
                      _i2c_rep_start
                          _i2c_start
                           _i2c_stop
                          _i2c_write
 ---------------------------------------------------------------------------------
 (2) ___bmul                                               3     2      1     406
                                              3 COMMON     3     2      1
 ---------------------------------------------------------------------------------
 (1) _display_dash_board                                   4     3      1   27873
                                              9 BANK0      4     3      1
                            ___awdiv
                            ___awmod
                         _clcd_print
                         _clcd_putch
                       _display_time
 ---------------------------------------------------------------------------------
 (2) _display_time                                         0     0      0    7786
                         _clcd_putch
                           _get_time
 ---------------------------------------------------------------------------------
 (2) ___awdiv                                              8     4      4     813
                                              3 COMMON     4     0      4
                                              0 BANK0      4     4      0
 ---------------------------------------------------------------------------------
 (1) _clear_log                                            1     1      0    9760
                                              7 COMMON     1     1      0
                         _clcd_print
 ---------------------------------------------------------------------------------
 (1) _change_time                                         10     9      1   28016
                                              9 BANK0     10     9      1
                            ___awmod
                            ___lwdiv
                            ___lwmod
                             ___wmul
                         _clcd_print
                         _clcd_putch
                         _clcd_write
                           _get_time
                       _write_ds1307
 ---------------------------------------------------------------------------------
 (3) _write_ds1307                                         2     1      1     453
                                              4 COMMON     2     1      1
                          _i2c_start
                           _i2c_stop
                          _i2c_write
 ---------------------------------------------------------------------------------
 (2) _get_time                                             1     1      0     161
                                              7 COMMON     1     1      0
                        _read_ds1307
 ---------------------------------------------------------------------------------
 (3) _read_ds1307                                          2     2      0     161
                                              5 COMMON     2     2      0
                           _i2c_read
                      _i2c_rep_start
                          _i2c_start
                           _i2c_stop
                          _i2c_write
 ---------------------------------------------------------------------------------
 (3) _i2c_rep_start                                        0     0      0       0
                  _i2c_wait_for_idle
 ---------------------------------------------------------------------------------
 (3) _i2c_read                                             2     2      0      65
                                              3 COMMON     2     2      0
                  _i2c_wait_for_idle
 ---------------------------------------------------------------------------------
 (2) ___wmul                                               6     2      4    1336
                                              3 COMMON     6     2      4
 ---------------------------------------------------------------------------------
 (2) ___lwmod                                              5     1      4    1312
                                              3 COMMON     5     1      4
 ---------------------------------------------------------------------------------
 (2) ___lwdiv                                              7     3      4    1501
                                              0 BANK0      7     3      4
                           _read_adc (ARG)
 ---------------------------------------------------------------------------------
 (2) ___awmod                                              6     2      4    1701
                                              3 COMMON     6     2      4
 ---------------------------------------------------------------------------------
 (1) _change_password                                      4     3      1   23614
                                              9 BANK0      4     3      1
                         _clcd_print
                         _clcd_putch
                         _clcd_write
         _ext_eeprom_24C02_str_write
                            _strncmp
                            _strncpy
 ---------------------------------------------------------------------------------
 (3) _strncpy                                              8     4      4     850
                                              3 COMMON     6     2      4
                                              0 BANK0      2     2      0
 ---------------------------------------------------------------------------------
 (2) _strncmp                                              6     3      3     473
                                              3 COMMON     6     3      3
 ---------------------------------------------------------------------------------
 (3) _ext_eeprom_24C02_str_write                           2     1      1     912
                                              6 COMMON     2     1      1
        _ext_eeprom_24C02_byte_write
 ---------------------------------------------------------------------------------
 (4) _ext_eeprom_24C02_byte_write                          2     1      1     633
                                              4 COMMON     2     1      1
                          _i2c_start
                           _i2c_stop
                          _i2c_write
 ---------------------------------------------------------------------------------
 (3) _i2c_write                                            1     1      0      31
                                              3 COMMON     1     1      0
                  _i2c_wait_for_idle
 ---------------------------------------------------------------------------------
 (3) _i2c_stop                                             0     0      0       0
                  _i2c_wait_for_idle
 ---------------------------------------------------------------------------------
 (3) _i2c_start                                            0     0      0       0
                  _i2c_wait_for_idle
 ---------------------------------------------------------------------------------
 (4) _i2c_wait_for_idle                                    0     0      0       0
 ---------------------------------------------------------------------------------
 (2) _clcd_putch                                           2     1      1    7625
                                              7 BANK0      2     1      1
                            ___awdiv (ARG)
                            ___awmod (ARG)
                            ___lwdiv (ARG)
                            ___lwmod (ARG)
                         _clcd_write
 ---------------------------------------------------------------------------------
 (2) _clcd_print                                           3     0      3    9729
                                              0 BANK0      3     0      3
                         _clcd_write
 ---------------------------------------------------------------------------------
 (2) _clcd_write                                           4     3      1    3873
                                              3 COMMON     4     3      1
 ---------------------------------------------------------------------------------
 Estimated maximum stack depth 4
 ---------------------------------------------------------------------------------
 (Depth) Function   	        Calls       Base Space   Used Autos Params    Refs
 ---------------------------------------------------------------------------------
 (7) _isr                                                  3     3      0       0
                                              0 COMMON     3     3      0
 ---------------------------------------------------------------------------------
 Estimated maximum stack depth 7
 ---------------------------------------------------------------------------------

 Call Graph Graphs:

 _main (ROOT)
   ___lwdiv
     _read_adc (ARG)
   _change_password
     _clcd_print
       _clcd_write
     _clcd_putch
       ___awdiv (ARG)
       ___awmod (ARG)
       ___lwdiv (ARG)
       ___lwmod (ARG)
       _clcd_write (ARG)
     _clcd_write
     _ext_eeprom_24C02_str_write
       _ext_eeprom_24C02_byte_write
         _i2c_start
           _i2c_wait_for_idle
         _i2c_stop
           _i2c_wait_for_idle
         _i2c_write
           _i2c_wait_for_idle
     _strncmp
     _strncpy
   _change_time
     ___awmod
     ___lwdiv
     ___lwmod
     ___wmul
     _clcd_print
     _clcd_putch
     _clcd_write
     _get_time
       _read_ds1307
         _i2c_read
           _i2c_wait_for_idle
         _i2c_rep_start
           _i2c_wait_for_idle
         _i2c_start
         _i2c_stop
         _i2c_write
     _write_ds1307
       _i2c_start
       _i2c_stop
       _i2c_write
   _clcd_print
   _clcd_putch
   _clcd_write
   _clear_log
     _clcd_print
   _display_dash_board
     ___awdiv
     ___awmod
     _clcd_print
     _clcd_putch
     _display_time
       _clcd_putch
       _get_time
   _download_log
     ___awmod
     ___bmul
     _ext_eeprom_24C02_read
       _i2c_read
       _i2c_rep_start
       _i2c_start
       _i2c_stop
       _i2c_write
     _putchars
     _putsx
       _putchars
   _ext_eeprom_24C02_byte_write
   _init_config
     _init_adc
     _init_clcd
       _init_display_controller
         _clcd_write
     _init_digital_keypad
     _init_ds1307
       _read_ds1307
       _write_ds1307
     _init_i2c
       ___lldiv
     _init_timer2
     _init_uart
       ___lldiv
   _log_car_event
     ___awdiv
     ___awmod
     _get_time
     _log_event
       ___bmul
       _ext_eeprom_24C02_str_write
     _strncpy
   _login
     ___awdiv
     ___awmod
     _clcd_print
     _clcd_putch
     _clcd_write
     _get_password
       _ext_eeprom_24C02_read
     _strcmp
   _login_menu
     _clcd_print
     _clcd_putch
     _clcd_write
   _read_adc
   _read_digital_keypad
   _strcpy
   _view_log
     ___awmod
     ___bmul
     _clcd_print
     _clcd_putch
     _clcd_write
     _ext_eeprom_24C02_read

 _isr (ROOT)

 Address spaces:
Name               Size   Autos  Total    Cost      Usage
BANK3               60      0       0       9        0.0%
BITBANK3            60      0       0       8        0.0%
SFR3                 0      0       0       4        0.0%
BITSFR3              0      0       0       4        0.0%
BANK2               60      0       0      11        0.0%
BITBANK2            60      0       0      10        0.0%
SFR2                 0      0       0       5        0.0%
BITSFR2              0      0       0       5        0.0%
BANK1               50      D      4A       7       92.5%
BITBANK1            50      0       0       6        0.0%
SFR1                 0      0       0       2        0.0%
BITSFR1              0      0       0       2        0.0%
BANK0               50     22      48       5       90.0%
BITBANK0            50      0       0       4        0.0%
SFR0                 0      0       0       1        0.0%
BITSFR0              0      0       0       1        0.0%
COMMON               E      9       B       1       78.6%
BITCOMMON            E      0       0       0        0.0%
CODE                 0      0       0       0        0.0%
DATA                 0      0      9D      12        0.0%
ABS                  0      0      9D       3        0.0%
NULL                 0      0       0       0        0.0%
STACK                0      0       0       2        0.0%
EEDATA             100      0       0       0        0.0%


Microchip Technology PIC Macro Assembler V2.45 build 20230818022343 
Symbol Table                                                                                   Wed Mar 20 10:59:22 2024

                      ?_get_password 0070                                    pc 0002  
                     ___bmul@product 0074                       clcd_print@addr 0022  
                                 l80 0281                                   l59 13A7  
                                 l92 0261                                   _GO 00FA  
                       ___awdiv@sign 0021                                   fsr 0004  
                ___wmul@multiplicand 0075                   login_menu@menu_pos 0053  
                                l102 02C3                                  l301 1520  
                                l141 1031                                  l231 1FFF  
                                l135 1FA6                                  l240 1FC8  
                                l161 0A5A                                  l225 12C5  
                                l234 1FBF                                  l306 13E4  
                                l314 11AC                                  l138 1023  
                                l243 110F                                  l228 1FF3  
                                l244 1112                                  l164 1FF2  
                                l173 1291                                  l245 1114  
                                l237 1FD1                                  l413 05FE  
                                l309 1578                                  l325 0E6F  
                                l158 12FB                                  l406 072F  
                                l190 1044                                  l167 106C  
                                l248 1FDC                                  l512 101F  
                                l193 11D7                                  l434 0CEF  
                                l354 17FF                                  l196 10F3  
                                l460 1202                                  l373 0FFF  
                                l550 1FE2                                  l463 10D5  
                                l295 163D                                  l551 1FE6  
                                l391 0B92                                  l552 1FE7  
                                l480 1F9F                                  l377 125E  
                                l810 09EB                                  l298 15DA  
                                l546 1333                                  l387 0AB7  
                                l644 1144                                  l469 10B7  
                                l493 07B6                                  l646 115C  
                                l670 1081                                  l558 1182  
                                l680 16A5                                  l924 142A  
                                l934 136D                                  l797 170E  
                                _GIE 005F                                  _RE1 0049  
                                _RE2 004A                                  _PR2 0092  
                                _PEN 048A                                  _SEN 0488  
                      ?_display_time 0070                                  _log 00A4  
                                _sec 0057                                  _isr 142B  
                     clcd_putch@addr 0027                                  _pos 0066  
                                fsr0 0004                       clcd_putch@data 0028  
                                indf 0000                         ___awmod@sign 0078  
                 log_car_event@event 0024                   log_car_event@speed 0026  
                               l1114 1137                                 l1108 122F  
                               l1133 07FE                                 l1118 14C9  
              ??_read_digital_keypad 0073                                 l4211 1FF9  
                               l5011 0F3C                                 l4213 1FB7  
                               l4221 1FDC                                 l4301 0A55  
                               l5021 0FD6                                 l5013 0F49  
                               l5005 0F1A                                 l4215 1FBC  
                               l4231 10FA                                 l4311 160C  
                               l4303 10D7                                 l5111 0622  
                               l5031 1251                                 l5023 0FE6  
                               l5015 0FCC                                 l5007 0F29  
                               l4209 1FF3                                 l4217 1FD3  
                               l4321 109C                                 l5201 0BFA  
                               l4233 1102                                 l4225 1FC9  
                               l4313 161C                                 l4305 15DB  
                               l5121 0642                                 l5113 062B  
                               l5105 0604                                 l5041 0440  
                               l4401 1FA0                                 l5025 0FF8  
                               l5009 0F34                                 l4251 12D1  
                               l4243 1FC0                                 l4219 1FD8  
                               l4323 109D                                 l5211 0C24  
                               l5203 0C08                                 l4235 1106  
                               l4227 1FCE                                 l4315 1624  
                               l4307 15F6                                 l5131 0685  
                               l5123 0643                                 l5115 062D  
                               l5107 0617                                 l5051 04CA  
                               l5043 04B7                                 l5035 125D  
                               l5027 1231                                 l4331 11D9  
                               l4403 1F9A                                 l4411 101C  
                               l4261 12E9                                 l4253 12D4  
                               l4421 1279                                 l4245 1FC5  
                               l4325 10A7                                 l4501 149A  
                               l5221 0C4F                                 l5213 0C2B  
                               l5205 0C0E                                 l4237 110B  
                               l4229 10F5                                 l4317 1634  
                               l4309 1604                                 l5141 06F3  
                               l5133 069F                                 l5125 064B  
                               l5117 0636                                 l5109 0620  
                               l5061 04D4                                 l5053 04CC  
                               l5045 04C2                                 l5029 124B  
                               l4341 106F                                 l4333 1201  
                               l4405 1013                                 l4413 12FC  
                               l5301 0088                                 l4263 12EA  
                               l4255 12D5                                 l4423 1281  
                               l4247 10B9                                 l4327 10AB  
                               l4503 14A2                                 l5223 0C53  
                               l5215 0C37                                 l5231 0C78  
                               l5207 0C18                                 l4239 1113  
                               l4271 11D6                                 l4319 163C  
                               l5135 06B7                                 l5127 0663  
                               l5119 0638                                 l5071 0531  
                               l5063 04E0                                 l5047 04C8  
                               l5055 04CD                                 l5039 043A  
                               l4351 1080                                 l4343 1073  
                               l4407 1017                                 l4415 1306  
                               l4431 13B9                                 l5311 00B8  
                               l5303 00A4                                 l4265 12EF  
                               l4257 12DA                                 l4249 12C7  
                               l4417 125F                                 l4329 10AF  
                               l4505 14A9                                 l4441 07BA  
                               l5241 0CA6                                 l5233 0C81  
                               l5225 0C5A                                 l5217 0C3D  
                               l5209 0C20                                 l4601 09DD  
                               l4521 1152                                 l4513 1138  
                               l5145 06FB                                 l5153 071F  
                               l5137 06C1                                 l5129 067B  
                               l5081 05A9                                 l5073 0539  
                               l5065 04F8                                 l5057 04D2  
                               l5049 04C9                                 l4425 1579  
                               l4345 1077                                 l4337 1FDE  
                               l4281 09FB                                 l4361 165C  
                               l4409 101B                                 l4433 13BB  
                               l5321 00F4                                 l5313 00C6  
                               l5305 00AA                                 l4267 12F2  
                               l4259 12DD                                 l4419 1269  
                               l4275 105B                                 l4507 14AF  
                               l4451 07E8                                 l4443 07BD  
                               l5243 0CAD                                 l5235 0C93  
                               l5219 0C47                                 l5171 0B96  
                               l4603 09E2                                 l4611 13E9  
                               l4523 1158                                 l4515 113A  
                               l5147 0707                                 l5139 06DB  
                               l5083 05B1                                 l5075 056D  
                               l5067 04FD                                 l4531 16AD  
                               l4347 1079                                 l4339 106E  
                               l4291 0A21                                 l4283 0A0B  
                               l4371 168D                                 l4363 1660  
                               l4355 163E                                 l4435 13C5  
                               l4427 13A8                                 l5411 0255  
                               l5331 012D                                 l5323 0119  
                               l5315 00CC                                 l5307 00AC  
                               l4509 14BB                                 l4453 07EC  
                               l4445 07C3                                 l5245 0CBA  
                               l5237 0C96                                 l5229 0C66  
                               l5173 0B9B                                 l5181 0BB2  
                               l4605 09E7                                 l4621 1401  
                               l4613 13EF                                 l4517 113E  
                               l4269 11AE                                 l5149 0713  
                               l5085 05B8                                 l5077 0575  
                               l5069 052D                                 l4541 16C1  
                               l4533 16B2                                 l4349 107B  
                               l4293 0A2D                                 l4285 0A10  
                               l4277 09EC                                 l4381 1FE8  
                               l4373 168E                                 l4365 1664  
                               l4357 1650                                 l4437 13CD  
                               l4429 13B7                                 l4701 0740  
                               l5421 0277                                 l5413 025B  
                               l5341 0164                                 l5333 0141  
                               l5325 0120                                 l5501 040D  
                               l5317 00E8                                 l5309 00B4  
                               l4455 07F0                                 l5247 0CC7  
                               l5239 0C9E                                 l5255 0CCD  
                               l5183 0BB8                                 l5175 0BA9  
                               l4623 1412                                 l4615 13F2  
                               l4631 1426                                 l4519 114B  
                               l5095 05DC                                 l5087 05C5  
                               l5079 05A5                                 l4551 16D7  
                               l4543 16C3                                 l4535 16B4  
                               l4527 16A6                                 l4295 0A32  
                               l4287 0A17                                 l4279 09F4  
                               l4383 1FEB                                 l4375 1697  
                               l4367 166D                                 l4359 1653  
                               l4391 1295                                 l4439 13DC  
                               l4463 1188                                 l4471 1205  
                               l4711 0752                                 l4703 0742  
                               l5431 029D                                 l5503 0430  
                               l5423 0279                                 l5415 0263  
                               l5407 0234                                 l5351 0193  
                               l5343 016B                                 l5327 0126  
                               l5335 0153                                 l5319 00EE  
                               l4449 07E1                                 l5257 0CD4  
                               l5249 0CCB                                 l5193 0BC1  
                               l5177 0BAD                                 l4625 1418  
                               l4617 13F9                                 l4609 13E5  
                               l4641 1344                                 l5097 05EC  
                               l5089 05D2                                 l4561 16FA  
                               l4553 16DB                                 l4545 16C9  
                               l4537 16B8                                 l4529 16A9  
                               l4801 14E5                                 l4297 0A42  
                               l4289 0A1A                                 l4385 1FEC  
                               l4369 167F                                 l4377 169D  
                               l4393 12C2                                 l4465 1197  
                               l4457 1186                                 l4473 1209  
                               l4721 0767                                 l4713 0753  
                               l4705 0744                                 l5433 02A3  
                               l5425 0282                                 l5417 026B  
                               l5361 01AA                                 l5409 024F  
                               l5353 019A                                 l5345 0175  
                               l5337 0159                                 l5329 012B  
                               l5281 004C                                 l4491 147B  
                               l5259 0CE1                                 l5195 0BCE  
                               l5187 0BBA                                 l5179 0BAE  
                               l4571 0993                                 l4627 1419  
                               l4619 13FD                                 l4651 1363  
                               l4643 1348                                 l4635 1334  
                               l5099 0602                                 l4555 16EC  
                               l4547 16CC                                 l4563 1700  
                               l4539 16BD                                 l4803 1500  
                               l4483 115D                                 l4299 0A49  
                               l4387 1FED                                 l4395 1032  
                               l4467 119F                                 l4475 120D  
                               l4811 0CFC                                 l4731 0791  
                               l4723 0774                                 l4715 0760  
                               l4707 0747                                 l5451 0312  
                               l5435 02AA                                 l5427 0289  
                               l5419 0271                                 l5371 01C9  
                               l5355 019E                                 l5347 0182  
                               l5339 015F                                 l5291 0061  
                               l5283 004D                                 l5275 0042  
                               l4493 1489                                 l5197 0BDC  
                               l5189 0BBF                                 l4581 09A3  
                               l4573 0994                                 l4629 1420  
                               l4645 134C                                 l4637 133A  
                               l4653 1369                                 l4565 1705  
                               l4557 16F2                                 l4549 16D3  
                               l4805 151B                                 l4485 115E  
                               l4397 1039                                 l4389 1292  
                               l4661 1382                                 l4477 121A  
                               l4469 1204                                 l4901 0E43  
                               l4821 0D04                                 l4813 0CFD  
                               l4741 07A7                                 l4725 077D  
                               l4709 074D                                 l5461 034D  
                               l5453 031F                                 l5445 02D2  
                               l5437 02BB                                 l5429 0290  
                               l5381 01EE                                 l5373 01CC  
                               l5365 01B1                                 l5357 01A0  
                               l5349 018C                                 l5293 0069  
                               l5285 004E                                 l5277 004A  
                               l5199 0BEB                                 l4591 09BC  
                               l4583 09A8                                 l4575 0998  
                               l4647 1356                                 l4639 133D  
                               l4567 170A                                 l4559 16F3  
                               l4487 116C                                 l4399 103C  
                               l4671 13A5                                 l4663 1387  
                               l4479 1221                                 l4911 0E6A  
                               l4903 0E49                                 l4823 0D05  
                               l4815 0CFF                                 l4807 0CF3  
                               l4743 07AD                                 l4727 0782  
                               l4719 0762                                 l4751 1116  
                               l5471 0380                                 l5463 035B  
                               l5455 0325                                 l5447 02F1  
                               l5439 02CA                                 l5391 0212  
                               l5383 01F5                                 l5375 01D3  
                               l5367 01B8                                 l5359 01A4  
                               l5295 0071                                 l5287 0050  
                               l5279 004A                                 l4497 148C  
                               l4593 09C0                                 l4585 09AE  
                               l4577 099D                                 l4649 135C  
                               l4489 1172                                 l4761 0A62  
                               l4673 13A6                                 l4665 138C  
                               l4657 136E                                 l4681 1544  
                               l4905 0E50                                 l4913 0E6E  
                               l4841 0D2D                                 l4833 0D14  
                               l4825 0D06                                 l4817 0D02  
                               l4809 0CF8                                 l4921 171A  
                               l4729 078B                                 l4737 0799  
                               l4753 1118                                 l5481 03AF  
                               l5473 038F                                 l5465 035F  
                               l5457 032D                                 l5449 0303  
                               l5393 0216                                 l5385 01F9  
                               l5377 01D7                                 l5369 01C5  
                               l5297 0079                                 l5289 0055  
                               l4499 1494                                 l4595 09CA  
                               l4587 09B1                                 l4579 099F  
                               l4771 0A89                                 l4763 0A6A  
                               l4755 0A5B                                 l4667 1391  
                               l4659 1373                                 l4683 155B  
                               l4675 1521                                 l4907 0E5A  
                               l4851 0D4F                                 l4843 0D33  
                               l4835 0D1B                                 l4819 0D03  
                               l4827 0D0C                                 l4931 1746  
                               l4923 171E                                 l4691 1027  
                               l4739 079E                                 l4747 07B5  
                               l5483 03B7                                 l5491 03E4  
                               l5475 039D                                 l5467 0367  
                               l5459 033E                                 l5731 02E9  
                               l5395 0219                                 l5387 01FC  
                               l5379 01DA                                 l5299 0081  
                               l5741 0C70                                 l4597 09D0  
                               l4589 09B8                                 l4781 0ACE  
                               l4773 0A90                                 l4765 0A74  
                               l4757 0A61                                 l4669 1396  
                               l4685 1572                                 l4677 1526  
                               l4909 0E67                                 l4861 0D69  
                               l4853 0D53                                 l4845 0D3C  
                               l4837 0D23                                 l4829 0D12  
                               l4941 1773                                 l4933 174E  
                               l4925 1724                                 l4917 1712  
                               l5493 03F3                                 l5733 03DC  
                               l5485 03BD                                 l5477 03A1  
                               l5469 037A                                 l5397 0228  
                               l5389 020B                                 l4599 09D7  
                               l4791 0AEA                                 l4775 0A98  
                               l4767 0A7D                                 l4759 0A62  
                               l4687 1573                                 l4679 1534  
                               l4871 0D87                                 l4863 0D7D  
                               l4855 0D59                                 l4839 0D29  
                               l4847 0D43                                 l4951 179F  
                               l4943 1780                                 l4927 1731  
                               l4935 1756                                 l4919 1718  
                               l4695 0730                                 l5735 0419  
                               l5495 0401                                 l5479 03A9  
                               l5399 022F                                 l5737 060C  
                               l4793 0AF2                                 l4777 0A9D  
                               l4769 0A83                                 l4881 0DC0  
                               l4873 0D95                                 l4849 0D49  
                               l4961 17FC                                 l4953 17B4  
                               l4945 1788                                 l4937 175E  
                               l4929 1739                                 l4689 1020  
                               l4697 0735                                 l5497 0405  
                               l5489 03C5                                 l5729 023E  
                               _ADFM 04FF                                 l5739 0724  
                               l4795 0AFF                                 l4787 0AD0  
                               l4779 0AA0                                 l4891 0E0A  
                               l4883 0DEE                                 l4875 0D9F  
                               l4859 0D63                                 l4955 17CA  
                               l4939 176B                                 l4947 178F  
                               l4699 073B                                 l4971 0E88  
                               ?_isr 0070                                 l4789 0ADF  
                               l4797 0B82                                 l4893 0E18  
                               l4885 0DF6                                 l4877 0DAC  
                               l4869 0D7F                                 l4957 17D2  
                               l4949 1797                                 l4981 0EAF  
                               l4973 0E8E                                 l4965 0E73  
                               l4799 14CD                                 l4895 0E25  
                               l4879 0DB9                                 l4887 0DF9  
                               l4959 17E7                                 l4991 0EDF  
                               l4983 0EB5                                 l4975 0E90  
                               l4967 0E74                                 l4897 0E30  
                               l4889 0E00                                 l4993 0EEC  
                               l4985 0EC3                                 l4977 0E95  
                               l4969 0E7C                                 l4899 0E3D  
                               l4995 0EF4                                 l4987 0ECB  
                               l4979 0E98                                 l4997 0EFF  
                               l4989 0ED7                                 l4999 0F18  
                               _ADON 00F8                                 STR_1 0985  
                               STR_2 098B                                 STR_3 0973  
                               STR_4 0976                                 STR_5 0979  
                               STR_6 097C                                 STR_7 0970  
                               STR_8 089F                                 STR_9 096B  
                               _BRGH 04C2                                 _CREN 00C4  
                               u4010 09DD                                 u4011 09DC  
                               u4020 09E2                                 u4100 133A  
                               u4021 09E1                                 u4005 09D1  
                               u4101 1339                                 u4030 13EF  
                               u4031 13EE                                 u4120 134C  
                               u4200 0752                                 u5000 025B  
                               u4121 134B                                 u4201 0751  
                               u5001 025A                                 u4050 1401  
                               u4130 1356                                 u4210 0760  
                               u5010 0261                                 u4051 1400  
                               u4131 1355                                 u4115 133E  
                               u4211 075F                                 u5011 0260  
                               u4220 0767                                 u4300 1137  
                               u5100 039D                                 u5020 0271  
                               u4045 13F3                                 u4221 0766  
                               u4301 1136                                 u5101 039C  
                               u5021 0270                                 u3430 1FF9  
                               u4070 1412                                 u4150 1369  
                               u4310 0A6A                                 u4230 0774  
                               u5110 03F3                                 u5030 0277  
                               u3431 1FF8                                 u4071 1411  
                               u4151 1368                                 u4135 1352  
                               u4311 0A69                                 u4231 0773  
                               u4215 075C                                 u5111 03F2  
                               u5031 0276                                 u3440 1FFF  
                               u3520 10B7                                 u4320 0A9D  
                               u3600 167F                                 u4400 0D4F  
                               u4160 1027                                 u4240 0782  
                               u5120 0401                                 u5040 031F  
                               u3441 1FFE                                 u3521 10B6  
                               u4065 1402                                 u4145 135D  
                               u3505 1611                                 u4321 0A9C  
                               u3601 167E                                 u4401 0D4E  
                               u4161 1026                                 u4241 0781  
                               u5121 0400                                 u5041 031E  
                               u4090 1426                                 u3450 110B  
                               u3530 1FE6                                 u4330 0AFF  
                               u4410 0D69                                 u4250 078B  
                               u4170 073B                                 u5050 032D  
                               u4091 1425                                 u4075 140E  
                               u3451 110A                                 u3515 1629  
                               u3531 1FE5                                 u4331 0AFE  
                               u4411 0D68                                 u4251 078A  
                               u4235 0770                                 u4171 073A  
                               u5115 03EF                                 u5051 032C  
                               u3460 12CE                                 u3700 07FE  
                               u3540 1073                                 u4340 0B92  
                               u3620 169D                                 u4420 0D7D  
                               u4500 175E                                 u4260 0791  
                               u4180 0740                                 u5060 034D  
                               u3461 12CA                                 u3701 07FD  
                               u4085 141A                                 u3541 1072  
                               u4341 0B91                                 u3621 169C  
                               u3605 167B                                 u4421 0D7C  
                               u4501 175D                                 u4261 0790  
                               u4181 073F                                 u5061 034C  
                               u3550 1080                                 u3630 12A3  
                               u3710 11AC                                 u4430 0D87  
                               u4350 0CF8                                 u4510 176B  
                               u4270 079E                                 u4190 074D  
                               u5070 035B                                 u3551 107F  
                               u4335 0AFB                                 u3615 168F  
                               u3711 11AB                                 u5207 0E15  
                               u4431 0D86                                 u4351 0CF7  
                               u4511 176A                                 u4271 079D  
                               u4191 074C                                 u5071 035A  
                               u3800 113E                                 u3560 1650  
                               u3640 1314                                 u3720 121A  
                               u4440 0DF6                                 u4360 0D12  
                               u4520 1780                                 u4280 07A7  
                               u4600 0EEC                                 u5080 037A  
                               u3801 113D                                 u4345 0B8E  
                               u3561 164F                                 u3721 1219  
                               u5217 0E56                                 u4441 0DF5  
                               u4361 0D11                                 u4521 177F  
                               u4281 07A6                                 u4601 0EEB  
                               u5081 0379                                 u5065 0349  
                               u5137 0171                                 u3474 12D1  
                               u3650 1291                                 u3730 1221  
                               u4450 0E49                                 u4370 0D23  
                               u4530 1797                                 u4290 07AD  
                               u4610 0F49                                 u5090 038F  
                               u5307 12D7                                 u3651 1290  
                               u5227 09F0                                 u3635 129E  
                               u3715 11A8                                 u3731 1220  
                               u4451 0E48                                 u4371 0D22  
                               u4531 1796                                 u4515 1767  
                               u4291 07AC                                 u4611 0F48  
                               u5091 038E                                 u5147 0197  
                               _PEIE 005E                                 u4700 0620  
                               u3900 16EC                                 u3740 1182  
                               u3580 1664                                 u3660 13B7  
                               u4380 0D29                                 u4460 1718  
                               u4620 0FF8                                 u4540 0E7C  
                               u5317 12EC                                 u3485 12E1  
                               u4701 061F                                 u3901 16EB  
                               u3741 1181                                 u5237 09FF  
                               u3581 1663                                 u3645 130F  
                               u3661 13B6                                 u4381 0D28  
                               u4525 177C                                 u4461 1717  
                               u4621 0FF7                                 u4605 0EE8  
                               u4541 0E7B                                 u5157 028D  
                               u3750 1489                                 u3830 1158  
                               u4710 062B                                 u4630 1251  
                               u3670 13DC                                 u4390 0D49  
                               u4470 1724                                 u4550 0E8E  
                               u5327 12F6                                 u3751 1488  
                               u3831 1157                                 u3815 1145  
                               u3495 15F9                                 u4711 062A  
                               u4631 1250                                 u5247 0A0D  
                               u3575 1655                                 u3671 13DB  
                               u4391 0D48                                 u4471 1723  
                               u4623 0FF4                                 u4615 0F45  
                               u4551 0E8D                                 u5095 038B  
                               u5167 02B0                                 u3760 14A2  
                               u3680 07E0                                 u4800 0BCE  
                               u4720 0636                                 u4640 0440  
                               u3920 1700                                 u3840 16AD  
                               u4480 1731                                 u4560 0E95  
                               u3761 14A1                                 u3681 07DF  
                               u4801 0BCD                                 u3825 114C  
                               u4721 0635                                 u4641 043F  
                               u3921 16FF                                 u3905 16E8  
                               u3841 16AC                                 u5257 0A23  
                               u4481 1730                                 u4561 0E94  
                               u5177 02BF                                 u3770 14A9  
                               u3690 07E7                                 u4810 0BEB  
                               u4730 0642                                 u4650 04D2  
                               u3930 1705                                 u3850 16B8  
                               u4490 1746                                 u4570 0EB5  
                               u3771 14A8                                 u3691 07E6  
                               u4811 0BEA                                 u4731 0641  
                               u4651 04D1                                 u3931 1704  
                               u3915 16F4                                 u3851 16B7  
                               u5267 0A2F                                 u3595 1666  
                               u3675 13D8                                 u5187 0D9B  
                               u4491 1745                                 u4571 0EB4  
                               u3780 14AF                                 u4820 0BFA  
                               u3940 0998                                 u4740 0649  
                               u3860 16C9                                 u4580 0EC3  
                               u4900 00EE                                 _RCEN 048B  
                               u3781 14AE                                 u4821 0BF9  
                               u4805 0BCA                                 u3941 0997  
                               u4741 0647                                 u3861 16C8  
                               u5277 0A3D                                 u5197 0E06  
                               u4485 172D                                 u4581 0EC2  
                               u4901 00ED                                 u3790 14BB  
                               u4830 0C2B                                 u3950 09A3  
                               u4750 064A                                 u4590 0EDF  
                               u4910 00F4                                 u3791 14BA  
                               u4831 0C2A                                 u4815 0BE7  
                               u3951 09A2                                 u5287 0A4B  
                               u4495 1742                                 u4591 0EDE  
                               u4911 00F3                                 u4840 0C5A  
                               u3960 09AE                                 u4760 06FA  
                               u3880 16DB                                 u4920 0126  
                               u4841 0C59                                 u4825 0BF6  
                               u3961 09AD                                 u4761 06F9  
                               u4665 0524                                 u3881 16DA  
                               u5297 0A57                                 u4585 0EBF  
                               u4921 0125                                 u4850 0C81  
                               u4770 0B9B                                 u4690 05FE  
                               u4930 012B                                 u4851 0C80  
                               u4771 0B9A                                 u4691 05FD  
                               u4675 0560                                 u3875 16CD  
                               u4931 012A                                 u4860 0C93  
                               u4780 0BB8                                 u3980 09C0  
                               u4940 0159                                 u4861 0C92  
                               u4781 0BB7                                 u3981 09BF  
                               u4693 05FA                                 u4685 059C  
                               u4941 0158                                 u4790 0BBF  
                               u3990 09CA                                 u4950 015F  
                               u4870 00AA                                 u4791 0BBE  
                               u3991 09C9                                 u3975 09B2  
                               u3895 16DC                                 u4951 015E  
                               u4871 00A9                                 u4960 0164  
                               u4880 00C6                                 u4961 0163  
                               u4881 00C5                                 u4970 01AA  
                               u4890 00CC                                 u3995 09C6  
                               u4971 01A9                                 u4891 00CB  
                               u4980 01B0                                 u4981 01AF  
                               u4990 0255                                 u4991 0254  
                               _SPEN 00C7                                 _RSEN 0489  
                               _TXEN 04C5                                 _TXIF 0064  
                               _R_nW 04A2                                 _gear 00C4  
         __end_of_display_dash_board 1521                                 _main 0042  
                               _menu 00D0                                 _time 00B8  
                               btemp 007E                                 start 000E  
              clear_log@reset_memory 0077                    ___bmul@multiplier 0075  
                     ??_get_password 0077                       clcd_write@byte 0076  
                     clcd_write@mode 0073                  view_log@reset_shift 0029  
                      _i2c_rep_start 1FC9                                ??_isr 0070  
                       ?_init_ds1307 0070                                ?_main 0070  
                       ?_read_ds1307 0070                                _ACKEN 048C  
                              _ACKDT 048D                       ??_display_time 0079  
                    __end_of___awdiv 170F                                STR_10 0982  
                              STR_11 098E                                STR_12 0988  
                              STR_20 08C0                                STR_13 097F  
                              STR_21 085B                                STR_30 088E  
                              STR_22 0839                                STR_14 0954  
                              STR_31 095D                                STR_23 08E0  
                              STR_15 094A                                STR_24 089F  
                              STR_32 08B0                                STR_40 0800  
                              STR_16 08F0                                STR_41 0815  
                              STR_33 090C                                STR_25 088E  
                              STR_17 0940                                STR_42 0815  
                              STR_34 0926                                STR_26 0815  
                              STR_18 08D0                                STR_35 0824  
                              STR_27 0815                                STR_43 086C  
                              STR_19 084A                                STR_36 0824  
                              STR_28 0919                                STR_44 08FE  
                    __end_of___awmod 09EC                                STR_37 0824  
                              STR_29 0933                                STR_45 087D  
                              STR_38 0822                                STR_46 0964  
                              STR_39 0827                      __end_of___lldiv 16A6  
                        i2c_read@ack 0073                      ___awdiv@divisor 0073  
                    __end_of___lwdiv 142B                      __end_of___lwmod 136E  
                              i1l529 1471                         ?_init_config 0070  
                    ___awdiv@counter 0020                                _SPBRG 0099  
                              _PORTB 0006                                _PORTD 0008  
                              _SSPM3 00A3                                _TRISB 0086  
                              _TRISD 0088                                _SSPEN 00A5  
                              _TXREG 0019                         ?_init_timer2 0070  
                       main@menu_pos 00DF                                _nDONE 00FA  
               login_menu@select_pos 0062                                _count 00A2  
                              _login 0CF0                                main@i 00DD  
                       view_log@rlog 002B                      _change_password 0B93  
                              _putsx 115D                         view_log@rpos 003C  
                              pclath 000A                 login_menu@reset_flag 0029  
                              status 0003                                wtemp0 007E  
                    __end_of_strncmp 14CA                      __end_of_strncpy 07FF  
                   init_ds1307@dummy 0077                      __initialization 0011  
                     ?_i2c_rep_start 0070                         __end_of_main 0437  
                     login@npassword 00BF                     __end_of_i2c_read 1115  
                   __end_of_i2c_stop 1FC9                        ?_download_log 0070  
                             ??_main 0040                       login@spassword 002C  
                      get_password@i 0021                               _ADRESH 001E  
                             ?_login 0029                               _ADRESL 009E  
                   ___awdiv@dividend 0075                               ?_putsx 0074  
                       i2c_read@data 0074                               i1l4001 144F  
                             i1l4003 1457                               i1l4005 1466  
                             i1l4007 146E                               i1l3993 142B  
                             i1l3995 1431                               i1l3997 1440  
                             i1l3999 1442                               u340_20 1440  
                             u340_21 143F                               u341_20 144F  
                             u341_21 144E                               u341_25 144B  
                             u342_20 1466                               u342_21 1465  
                             u342_25 1462                         _write_ds1307 10D6  
                             u339_20 1431                               u339_21 1430  
                             _TMR2IE 0461                               _TMR2IF 0061  
                             _TMR2ON 0092                               _SSPADD 0093  
                             _TRISE1 0449                               _TRISE2 044A  
                             _SSPBUF 0013                        login_menu@key 002C  
        __end_of_init_digital_keypad 1FA0                     __end_of_get_time 163E  
                             ___bmul 106D              _init_display_controller 09EC  
                             _access 0064                               ___wmul 1138  
                          ??___awdiv 0077                            ??___awmod 0077  
                          ??___lldiv 0073         ??_ext_eeprom_24C02_str_write 0077  
                          ??___lwdiv 0077                        view_log@i_385 0038  
                          ??___lwmod 0077                               _count1 00A0  
                   __end_of_init_i2c 12C6                     __end_of_init_adc 1FA7  
                   __end_of_read_adc 1032                       ??_download_log 0020  
                   ___awdiv@quotient 0022                      ___awmod@divisor 0073  
                       putchars@data 0073                      ___awmod@counter 0077  
                      view_log@shift 0051                               main@gr 00E3  
                             _strcmp 1203                               _strcpy 1115  
       ?_ext_eeprom_24C02_byte_write 0074                        main@wait_time 00E4  
                  change_time@t_done 005A                               login@i 005E  
            __end_of_change_password 0CF0                               saved_w 007E  
                   __end_of_view_log 1000                     __end_of_putchars 1FE8  
               __end_of_get_password 11AD                               putsx@s 0074  
                          ??_strncmp 0076                            ??_strncpy 0077  
            __end_of__initialization 003E                 __end_of_display_time 15DB  
                    ??_i2c_rep_start 0073                  ___bmul@multiplicand 0073  
                     __pcstackCOMMON 0070                         __pidataBANK0 1FAF  
                       __pidataBANK1 1082                        __end_of_login 0E70  
                      __end_of_putsx 1183                      login@reset_flag 0029  
                  __end_of_i2c_start 1FC0                    __end_of_i2c_write 1FDD  
      ??_ext_eeprom_24C02_byte_write 0075                    _i2c_wait_for_idle 1FF3  
                    change_time@wait 005C                              ??_login 002A  
                            ??_putsx 0076                   ?_i2c_wait_for_idle 0070  
                         __pbssBANK0 0042                           __pbssBANK1 00A0  
                          ?_i2c_read 0070                            ?_i2c_stop 0070  
          ??_init_display_controller 0077                           _clcd_print 125F  
                ??_i2c_wait_for_idle 0073                           _clcd_putch 1058  
                         _clcd_write 12C6                _ext_eeprom_24C02_read 11D8  
                         __pmaintext 0042                      read_ds1307@addr 0075  
                      _log_car_event 1521                      read_ds1307@data 0076  
                            ?___bmul 0073                              ?___wmul 0073  
                         __pintentry 0004                   _display_dash_board 14CA  
                            _ACKSTAT 048E                              ?_strcmp 0073  
                            ?_strcpy 0073                              _T2CKPS0 0090  
                            _T2CKPS1 0091                  ?_display_dash_board 0029  
        __end_of_read_digital_keypad 07B7                     ?_change_password 0029  
          __end_of_i2c_wait_for_idle 2000                         init_i2c@baud 0028  
                            _SSPCON2 0091                            ?_get_time 0070  
                         __stringtab 1000                           ??_i2c_read 0073  
                         ??_i2c_stop 0073                            ?_init_i2c 0028  
               __end_of_download_log 0B93                            ?_init_adc 0070  
                          ?_read_adc 0073                    __end_of_clear_log 125F  
               ??_display_dash_board 002A                       ?_log_car_event 0024  
                 change_password@key 002C                get_password@spassword 0020  
 __end_of_ext_eeprom_24C02_str_write 10B8           _ext_eeprom_24C02_str_write 109B  
          ext_eeprom_24C02_read@addr 0075            ext_eeprom_24C02_read@data 0076  
                            ___awdiv 16A6                              ___awmod 0993  
                          ?_view_log 0029                              ___lldiv 163E  
                            ___lwdiv 13E5                              ___lwmod 1334  
                          ?_putchars 0070                     main@control_flag 00E6  
                            __ptext1 0E70                              __ptext2 1115  
                            __ptext3 0730                              __ptext4 1020  
                            __ptext5 170F                              __ptext6 0CF0  
                            __ptext7 1203                              __ptext8 1183  
                            __ptext9 1521                     login@attempt_rem 005D  
    __end_of_init_display_controller 0A5B                    __end_of_init_clcd 1FF3  
             read_digital_keypad@key 0073                    __end_of_init_uart 1334  
                   ___awmod@dividend 0075                        ??_change_time 002A  
                     main@reset_flag 00E7                    __end_of_log_event 13E5  
                         _login_menu 170F                              main@key 00E9  
                            clrloop0 1FA8                           ??_get_time 0077  
                            _strncmp 147A                              _strncpy 07B7  
               end_of_initialization 003E               change_password@n_p_pos 004D  
                         ??_init_i2c 002C                           ??_init_adc 0073  
                         ??_read_adc 0075               ?_ext_eeprom_24C02_read 0070  
                        ?_clcd_print 0020                          ?_clcd_putch 0027  
                    ___lldiv@divisor 0020                          ?_clcd_write 0073  
                    ___lldiv@counter 0078                           ??_view_log 002A  
                       _get_password 1183                         __pstringtext 0800  
                         ??_putchars 0073                              strcmp@l 0077  
                            strcmp@r 0073                              strcpy@d 0077  
                       _display_time 1579                        i2c_write@data 0073  
                      clcd_print@str 0020                         log_event@add 0078  
                __end_of_change_time 0730                      ??_log_car_event 0027  
                     __end_of___bmul 1082                       __end_of___wmul 115D  
                        view_log@add 0036                          view_log@key 0037  
                     __end_of_strcmp 1230                       __end_of_strcpy 1138  
                start_initialization 0011                          ?_login_menu 0029  
                          _i2c_start 1FB7                          __end_of_isr 147A  
                          _i2c_write 1FD2       ext_eeprom_24C02_str_write@addr 0077  
     ext_eeprom_24C02_str_write@data 0076                __end_of_i2c_rep_start 1FD2  
                           ??___bmul 0074                             ??___wmul 0077  
                         init_fetch0 1045                     change_time@blink 005B  
                      ??_init_ds1307 0077                 change_password@p_chg 0059  
                        __pdataBANK0 0060                          __pdataBANK1 00C4  
                   change_time@dummy 0032           read_digital_keypad@pre_key 0079  
               change_password@r_pwd 00AF                        ??_read_ds1307 0075  
                       _download_log 0A5B                             ??_strcmp 0075  
                           ??_strcpy 0075                        ??_init_config 0079  
              change_time@reset_time 0029                        ??_init_timer2 0073  
                        __pbssCOMMON 0079                            ___latbits 0002  
                      __pcstackBANK0 0020                        __pcstackBANK1 00DD  
                        _change_time 0437                           ?_i2c_start 0070  
                         ?_i2c_write 0070              display_dash_board@event 002C  
            display_dash_board@speed 0029                       change_time@key 002D  
                       change_time@i 002E                     ___lwdiv@dividend 0022  
                          _clear_log 1230          ?_ext_eeprom_24C02_str_write 0076  
                           ?___awdiv 0073                             ?___awmod 0073  
                           ?___lldiv 0020                             ?___lwdiv 0020  
                          _clock_reg 0048                             ?___lwmod 0073  
                          __pstrings 1000  __end_of_ext_eeprom_24C02_byte_write 10D6  
        _ext_eeprom_24C02_byte_write 10B8                  __end_of_init_ds1307 1045  
                read_adc@adc_reg_val 0075                  __end_of_read_ds1307 11D8  
                   ___lwdiv@quotient 0025                            _init_clcd 1FE8  
                __end_of_init_config 13A8                            _init_uart 12FC  
                           ?_strncmp 0073                             ?_strncpy 0073  
     read_digital_keypad@longpressed 0060                            _log_event 13A8  
                      ?_write_ds1307 0074              ??_ext_eeprom_24C02_read 0075  
                __end_of_init_timer2 1020             ?_init_display_controller 0070  
                  interrupt_function 0004                       ___wmul@product 0077  
                          clear_ram0 1FA7                         ??_clcd_print 0077  
                       ??_clcd_putch 0079                         ??_clcd_write 0074  
                         ?_clear_log 0070                            main@F1251 00DA  
                      download_log@i 0031                 change_time@blink_pos 004F  
                        __stringbase 1012                    ___wmul@multiplier 0073  
                          main@event 00E0                            main@speed 00E8  
                        ??_i2c_start 0073                   __end_of_clcd_print 1292  
                        ??_i2c_write 0073                   __end_of_clcd_putch 106D  
                 __end_of_clcd_write 12FC                           ?_init_clcd 0070  
                         ?_init_uart 0028                       ??_write_ds1307 0075  
                         ?_log_event 0070                  _init_digital_keypad 1F9A  
                           _i2c_read 10F4                             _i2c_stop 1FC0  
           change_password@reset_pwd 0029                 ?_init_digital_keypad 0070  
                        _init_ds1307 1032                   __end_of__stringtab 1012  
                        _read_ds1307 11AD                          _init_config 136E  
                       ??_login_menu 002A                          _init_timer2 1013  
                    ___lwdiv@divisor 0020                      ___lwdiv@counter 0024  
                           __ptext10 13A8                             __ptext11 136E  
                           __ptext20 1FA0                             __ptext12 12FC  
                           __ptext21 0A5B                             __ptext13 1013  
                           __ptext30 0437                             __ptext22 115D  
                           __ptext14 1292                             __ptext31 10D6  
                           __ptext23 1FDD                             __ptext15 163E  
                           __ptext40 0B93                             __ptext32 15DB  
                           __ptext24 11D8                             __ptext16 1032  
                           __ptext41 07B7                             __ptext33 11AD  
                           __ptext25 106D                             __ptext17 1F9A  
                           __ptext50 125F                             __ptext42 147A  
                           __ptext34 1FC9                             __ptext26 14CA  
                           __ptext18 1FE8                             __ptext51 12C6  
                           __ptext43 109B                             __ptext35 10F4  
                           __ptext27 1579                             __ptext19 09EC  
                           __ptext52 142B                             __ptext44 10B8  
                           __ptext36 1138                             __ptext28 16A6  
                           __ptext45 1FD2                             __ptext37 1334  
                           __ptext29 1230                             __ptext46 1FC0  
                           __ptext38 13E5                             __ptext47 1FB7  
                           __ptext39 0993                             __ptext48 1FF3  
                           __ptext49 1058      ext_eeprom_24C02_byte_write@addr 0075  
    ext_eeprom_24C02_byte_write@data 0074                             _get_time 15DB  
                         strcpy@dest 0078                             _init_i2c 1292  
                           _init_adc 1FA0                             _read_adc 1020  
            read_digital_keypad@once 007A                __end_of_log_car_event 1579  
                        ??_clear_log 0077                    ??_change_password 002A  
                           _overflow 005F                   __end_of_login_menu 1800  
                           _view_log 0E70                ??_init_digital_keypad 0073  
                           _putchars 1FDD                            view_log@i 003E  
                           isr@count 004B                  change_time@new_time 0042  
                       ?_change_time 0029                             init_ram0 1049  
                        ??_init_clcd 0079                          ??_init_uart 002C  
                           login@key 0031                          ??_log_event 0078  
                           intlevel1 0000                        init_uart@baud 0028  
                   ___lwmod@dividend 0075                     ___lldiv@dividend 0024  
                          strcpy@src 0073                            stringcode 100A  
                          strncpy@cp 0021                 __end_of_write_ds1307 10F4  
                _read_digital_keypad 0730                     ___lldiv@quotient 0074  
                    ___lwmod@divisor 0073                      ___lwmod@counter 0077  
                           strncmp@l 0078                             strncmp@n 0074  
                           strncmp@r 0073                             stringtab 1000  
                           strncpy@d 0020                             strncpy@n 0075  
                           strncpy@s 0073                          _return_time 0055  
               ?_read_digital_keypad 0070                     write_ds1307@addr 0075  
                   write_ds1307@data 0074        __end_of_ext_eeprom_24C02_read 1203  
                   download_log@next 002F                      download_log@add 002C  
                   download_log@rlog 0021                     download_log@rpos 002D  
